	.text
	.syntax unified
	.eabi_attribute	67, "2.09"	@ Tag_conformance
	.cpu	cortex-m4
	.eabi_attribute	6, 13	@ Tag_CPU_arch
	.eabi_attribute	7, 77	@ Tag_CPU_arch_profile
	.eabi_attribute	8, 0	@ Tag_ARM_ISA_use
	.eabi_attribute	9, 2	@ Tag_THUMB_ISA_use
	.fpu	fpv4-sp-d16
	.eabi_attribute	27, 1	@ Tag_ABI_HardFP_use
	.eabi_attribute	36, 1	@ Tag_FP_HP_extension
	.eabi_attribute	34, 1	@ Tag_CPU_unaligned_access
	.eabi_attribute	17, 1	@ Tag_ABI_PCS_GOT_use
	.eabi_attribute	20, 2	@ Tag_ABI_FP_denormal
	.eabi_attribute	21, 0	@ Tag_ABI_FP_exceptions
	.eabi_attribute	23, 1	@ Tag_ABI_FP_number_model
	.eabi_attribute	24, 1	@ Tag_ABI_align_needed
	.eabi_attribute	25, 1	@ Tag_ABI_align_preserved
	.eabi_attribute	28, 1	@ Tag_ABI_VFP_args
	.eabi_attribute	38, 1	@ Tag_ABI_FP_16bit_format
	.eabi_attribute	18, 2	@ Tag_ABI_PCS_wchar_t
	.eabi_attribute	26, 1	@ Tag_ABI_enum_size
	.eabi_attribute	14, 0	@ Tag_ABI_PCS_R9_use
	.file	"gpio.c"
	.file	1 "f:\\OwnProject\\CubeMX\\stm32f407_ll_usart_dma\\MDK-ARM" "../Drivers/CMSIS/Device/ST/STM32F4xx/Include\\stm32f4xx.h"
	.file	2 "D:\\ProgramFiles\\KEIL\\ARM\\ARMCLANG\\Bin\\..\\include" "stdint.h"
	.file	3 "f:\\OwnProject\\CubeMX\\stm32f407_ll_usart_dma\\MDK-ARM" "../Drivers/CMSIS/Device/ST/STM32F4xx/Include/stm32f407xx.h"
	.section	.text.MX_GPIO_Init,"ax",%progbits
	.hidden	MX_GPIO_Init                    @ -- Begin function MX_GPIO_Init
	.globl	MX_GPIO_Init
	.p2align	2
	.type	MX_GPIO_Init,%function
	.code	16                              @ @MX_GPIO_Init
	.thumb_func
MX_GPIO_Init:
.Lfunc_begin0:
	.file	4 "f:\\OwnProject\\CubeMX\\stm32f407_ll_usart_dma\\MDK-ARM" "../Core/Src/gpio.c"
	.loc	4 45 0                          @ ../Core/Src/gpio.c:45:0
	.fnstart
	.cfi_sections .debug_frame
	.cfi_startproc
@ %bb.0:
	.save	{r4, r5, r6, r7, r8, lr}
	push.w	{r4, r5, r6, r7, r8, lr}
	.cfi_def_cfa_offset 24
	.cfi_offset lr, -4
	.cfi_offset r8, -8
	.cfi_offset r7, -12
	.cfi_offset r6, -16
	.cfi_offset r5, -20
	.cfi_offset r4, -24
	.pad	#32
	sub	sp, #32
	.cfi_def_cfa_offset 56
	movs	r6, #0
	movw	r0, #14384
.Ltmp0:
	.loc	4 47 23 prologue_end            @ ../Core/Src/gpio.c:47:23
	strd	r6, r6, [sp, #20]
	strd	r6, r6, [sp, #12]
	movt	r0, #16386
.Ltmp1:
	@DEBUG_VALUE: LL_AHB1_GRP1_EnableClock:Periphs <- 16
	.file	5 "f:\\OwnProject\\CubeMX\\stm32f407_ll_usart_dma\\MDK-ARM" "../Drivers/STM32F4xx_HAL_Driver/Inc\\stm32f4xx_ll_bus.h"
	.loc	5 412 3                         @ ../Drivers/STM32F4xx_HAL_Driver/Inc\stm32f4xx_ll_bus.h:412:3
	ldr	r1, [r0]
	movs	r4, #0
	orr	r1, r1, #16
	str	r1, [r0]
	.loc	5 414 12                        @ ../Drivers/STM32F4xx_HAL_Driver/Inc\stm32f4xx_ll_bus.h:414:12
	ldr	r1, [r0]
	movt	r4, #16386
	and	r1, r1, #16
	.loc	5 414 10 is_stmt 0              @ ../Drivers/STM32F4xx_HAL_Driver/Inc\stm32f4xx_ll_bus.h:414:10
	str	r1, [sp, #28]
	.loc	5 415 9 is_stmt 1               @ ../Drivers/STM32F4xx_HAL_Driver/Inc\stm32f4xx_ll_bus.h:415:9
	ldr	r1, [sp, #28]
.Ltmp2:
	@DEBUG_VALUE: LL_AHB1_GRP1_EnableClock:Periphs <- 4
	.loc	5 412 3                         @ ../Drivers/STM32F4xx_HAL_Driver/Inc\stm32f4xx_ll_bus.h:412:3
	ldr	r1, [r0]
	add	r5, sp, #4
	orr	r1, r1, #4
	str	r1, [r0]
	.loc	5 414 12                        @ ../Drivers/STM32F4xx_HAL_Driver/Inc\stm32f4xx_ll_bus.h:414:12
	ldr	r1, [r0]
	movw	r8, #65535
	and	r1, r1, #4
	.loc	5 414 10 is_stmt 0              @ ../Drivers/STM32F4xx_HAL_Driver/Inc\stm32f4xx_ll_bus.h:414:10
	str	r1, [sp, #28]
	.loc	5 415 9 is_stmt 1               @ ../Drivers/STM32F4xx_HAL_Driver/Inc\stm32f4xx_ll_bus.h:415:9
	ldr	r1, [sp, #28]
.Ltmp3:
	@DEBUG_VALUE: LL_AHB1_GRP1_EnableClock:Periphs <- 32
	.loc	5 412 3                         @ ../Drivers/STM32F4xx_HAL_Driver/Inc\stm32f4xx_ll_bus.h:412:3
	ldr	r1, [r0]
	movs	r7, #3
	orr	r1, r1, #32
	str	r1, [r0]
	.loc	5 414 12                        @ ../Drivers/STM32F4xx_HAL_Driver/Inc\stm32f4xx_ll_bus.h:414:12
	ldr	r1, [r0]
	and	r1, r1, #32
	.loc	5 414 10 is_stmt 0              @ ../Drivers/STM32F4xx_HAL_Driver/Inc\stm32f4xx_ll_bus.h:414:10
	str	r1, [sp, #28]
	.loc	5 415 9 is_stmt 1               @ ../Drivers/STM32F4xx_HAL_Driver/Inc\stm32f4xx_ll_bus.h:415:9
	ldr	r1, [sp, #28]
.Ltmp4:
	@DEBUG_VALUE: LL_AHB1_GRP1_EnableClock:Periphs <- 128
	.loc	5 412 3                         @ ../Drivers/STM32F4xx_HAL_Driver/Inc\stm32f4xx_ll_bus.h:412:3
	ldr	r1, [r0]
	orr	r1, r1, #128
	str	r1, [r0]
	.loc	5 414 12                        @ ../Drivers/STM32F4xx_HAL_Driver/Inc\stm32f4xx_ll_bus.h:414:12
	ldr	r1, [r0]
	and	r1, r1, #128
	.loc	5 414 10 is_stmt 0              @ ../Drivers/STM32F4xx_HAL_Driver/Inc\stm32f4xx_ll_bus.h:414:10
	str	r1, [sp, #28]
	.loc	5 415 9 is_stmt 1               @ ../Drivers/STM32F4xx_HAL_Driver/Inc\stm32f4xx_ll_bus.h:415:9
	ldr	r1, [sp, #28]
.Ltmp5:
	@DEBUG_VALUE: LL_AHB1_GRP1_EnableClock:Periphs <- 1
	.loc	5 412 3                         @ ../Drivers/STM32F4xx_HAL_Driver/Inc\stm32f4xx_ll_bus.h:412:3
	ldr	r1, [r0]
	orr	r1, r1, #1
	str	r1, [r0]
	.loc	5 414 12                        @ ../Drivers/STM32F4xx_HAL_Driver/Inc\stm32f4xx_ll_bus.h:414:12
	ldr	r1, [r0]
	and	r1, r1, #1
	.loc	5 414 10 is_stmt 0              @ ../Drivers/STM32F4xx_HAL_Driver/Inc\stm32f4xx_ll_bus.h:414:10
	str	r1, [sp, #28]
	.loc	5 415 9 is_stmt 1               @ ../Drivers/STM32F4xx_HAL_Driver/Inc\stm32f4xx_ll_bus.h:415:9
	ldr	r1, [sp, #28]
.Ltmp6:
	@DEBUG_VALUE: LL_AHB1_GRP1_EnableClock:Periphs <- 2
	.loc	5 412 3                         @ ../Drivers/STM32F4xx_HAL_Driver/Inc\stm32f4xx_ll_bus.h:412:3
	ldr	r1, [r0]
	orr	r1, r1, #2
	str	r1, [r0]
	.loc	5 414 12                        @ ../Drivers/STM32F4xx_HAL_Driver/Inc\stm32f4xx_ll_bus.h:414:12
	ldr	r1, [r0]
	and	r1, r1, #2
	.loc	5 414 10 is_stmt 0              @ ../Drivers/STM32F4xx_HAL_Driver/Inc\stm32f4xx_ll_bus.h:414:10
	str	r1, [sp, #28]
	.loc	5 415 9 is_stmt 1               @ ../Drivers/STM32F4xx_HAL_Driver/Inc\stm32f4xx_ll_bus.h:415:9
	ldr	r1, [sp, #28]
.Ltmp7:
	@DEBUG_VALUE: LL_AHB1_GRP1_EnableClock:Periphs <- 64
	.loc	5 412 3                         @ ../Drivers/STM32F4xx_HAL_Driver/Inc\stm32f4xx_ll_bus.h:412:3
	ldr	r1, [r0]
	orr	r1, r1, #64
	str	r1, [r0]
	.loc	5 414 12                        @ ../Drivers/STM32F4xx_HAL_Driver/Inc\stm32f4xx_ll_bus.h:414:12
	ldr	r1, [r0]
	and	r1, r1, #64
	.loc	5 414 10 is_stmt 0              @ ../Drivers/STM32F4xx_HAL_Driver/Inc\stm32f4xx_ll_bus.h:414:10
	str	r1, [sp, #28]
	.loc	5 415 9 is_stmt 1               @ ../Drivers/STM32F4xx_HAL_Driver/Inc\stm32f4xx_ll_bus.h:415:9
	ldr	r1, [sp, #28]
.Ltmp8:
	@DEBUG_VALUE: LL_AHB1_GRP1_EnableClock:Periphs <- 8
	.loc	5 412 3                         @ ../Drivers/STM32F4xx_HAL_Driver/Inc\stm32f4xx_ll_bus.h:412:3
	ldr	r1, [r0]
	orr	r1, r1, #8
	str	r1, [r0]
	.loc	5 414 12                        @ ../Drivers/STM32F4xx_HAL_Driver/Inc\stm32f4xx_ll_bus.h:414:12
	ldr	r0, [r0]
.Ltmp9:
	.loc	4 66 3                          @ ../Core/Src/gpio.c:66:3
	mov	r1, r5
.Ltmp10:
	.loc	5 414 12                        @ ../Drivers/STM32F4xx_HAL_Driver/Inc\stm32f4xx_ll_bus.h:414:12
	and	r0, r0, #8
	.loc	5 414 10 is_stmt 0              @ ../Drivers/STM32F4xx_HAL_Driver/Inc\stm32f4xx_ll_bus.h:414:10
	str	r0, [sp, #28]
	.loc	5 415 9 is_stmt 1               @ ../Drivers/STM32F4xx_HAL_Driver/Inc\stm32f4xx_ll_bus.h:415:9
	ldr	r0, [sp, #28]
.Ltmp11:
	.loc	4 66 3                          @ ../Core/Src/gpio.c:66:3
	add.w	r0, r4, #4096
	.loc	4 60 23                         @ ../Core/Src/gpio.c:60:23
	str.w	r8, [sp, #4]
	.loc	4 64 24                         @ ../Core/Src/gpio.c:64:24
	str	r7, [sp, #8]
	.loc	4 65 24                         @ ../Core/Src/gpio.c:65:24
	str	r6, [sp, #20]
	.loc	4 66 3                          @ ../Core/Src/gpio.c:66:3
	bl	LL_GPIO_Init
.Ltmp12:
	.loc	4 0 3 is_stmt 0                 @ ../Core/Src/gpio.c:0:3
	movw	r0, #16383
	.loc	4 69 23 is_stmt 1               @ ../Core/Src/gpio.c:69:23
	strd	r0, r7, [sp, #4]
	.loc	4 75 3                          @ ../Core/Src/gpio.c:75:3
	add.w	r0, r4, #2048
	mov	r1, r5
	.loc	4 74 24                         @ ../Core/Src/gpio.c:74:24
	str	r6, [sp, #20]
	.loc	4 75 3                          @ ../Core/Src/gpio.c:75:3
	bl	LL_GPIO_Init
.Ltmp13:
	.loc	4 84 3                          @ ../Core/Src/gpio.c:84:3
	add.w	r0, r4, #5120
	mov	r1, r5
	.loc	4 78 23                         @ ../Core/Src/gpio.c:78:23
	strd	r8, r7, [sp, #4]
	.loc	4 83 24                         @ ../Core/Src/gpio.c:83:24
	str	r6, [sp, #20]
	.loc	4 84 3                          @ ../Core/Src/gpio.c:84:3
	bl	LL_GPIO_Init
.Ltmp14:
	.loc	4 0 3 is_stmt 0                 @ ../Core/Src/gpio.c:0:3
	movw	r0, #6643
	.loc	4 87 23 is_stmt 1               @ ../Core/Src/gpio.c:87:23
	strd	r0, r7, [sp, #4]
	.loc	4 92 3                          @ ../Core/Src/gpio.c:92:3
	mov	r0, r4
	mov	r1, r5
	.loc	4 91 24                         @ ../Core/Src/gpio.c:91:24
	str	r6, [sp, #20]
	.loc	4 92 3                          @ ../Core/Src/gpio.c:92:3
	bl	LL_GPIO_Init
.Ltmp15:
	.loc	4 101 3                         @ ../Core/Src/gpio.c:101:3
	add.w	r0, r4, #1024
	mov	r1, r5
	.loc	4 95 23                         @ ../Core/Src/gpio.c:95:23
	strd	r8, r7, [sp, #4]
	.loc	4 100 24                        @ ../Core/Src/gpio.c:100:24
	str	r6, [sp, #20]
	.loc	4 101 3                         @ ../Core/Src/gpio.c:101:3
	bl	LL_GPIO_Init
.Ltmp16:
	.loc	4 110 3                         @ ../Core/Src/gpio.c:110:3
	add.w	r0, r4, #6144
	mov	r1, r5
	.loc	4 104 23                        @ ../Core/Src/gpio.c:104:23
	strd	r8, r7, [sp, #4]
	.loc	4 109 24                        @ ../Core/Src/gpio.c:109:24
	str	r6, [sp, #20]
	.loc	4 110 3                         @ ../Core/Src/gpio.c:110:3
	bl	LL_GPIO_Init
.Ltmp17:
	.loc	4 119 3                         @ ../Core/Src/gpio.c:119:3
	add.w	r0, r4, #3072
	mov	r1, r5
	.loc	4 113 23                        @ ../Core/Src/gpio.c:113:23
	strd	r8, r7, [sp, #4]
	.loc	4 118 24                        @ ../Core/Src/gpio.c:118:24
	str	r6, [sp, #20]
	.loc	4 119 3                         @ ../Core/Src/gpio.c:119:3
	bl	LL_GPIO_Init
.Ltmp18:
	.loc	4 121 1                         @ ../Core/Src/gpio.c:121:1
	add	sp, #32
	pop.w	{r4, r5, r6, r7, r8, pc}
.Ltmp19:
.Lfunc_end0:
	.size	MX_GPIO_Init, .Lfunc_end0-MX_GPIO_Init
	.cfi_endproc
	.cantunwind
	.fnend
                                        @ -- End function
	.file	6 "f:\\OwnProject\\CubeMX\\stm32f407_ll_usart_dma\\MDK-ARM" "../Drivers/STM32F4xx_HAL_Driver/Inc\\stm32f4xx_ll_gpio.h"
	.section	".note.GNU-stack","",%progbits
	.eabi_attribute	30, 2	@ Tag_ABI_optimization_goals
	.ARM_attribute	16, 1	@ Tag_AV_eba