	.text
	.syntax unified
	.eabi_attribute	67, "2.09"	@ Tag_conformance
	.cpu	cortex-m4
	.eabi_attribute	6, 13	@ Tag_CPU_arch
	.eabi_attribute	7, 77	@ Tag_CPU_arch_profile
	.eabi_attribute	8, 0	@ Tag_ARM_ISA_use
	.eabi_attribute	9, 2	@ Tag_THUMB_ISA_use
	.fpu	fpv4-sp-d16
	.eabi_attribute	27, 1	@ Tag_ABI_HardFP_use
	.eabi_attribute	36, 1	@ Tag_FP_HP_extension
	.eabi_attribute	34, 1	@ Tag_CPU_unaligned_access
	.eabi_attribute	17, 1	@ Tag_ABI_PCS_GOT_use
	.eabi_attribute	20, 2	@ Tag_ABI_FP_denormal
	.eabi_attribute	21, 0	@ Tag_ABI_FP_exceptions
	.eabi_attribute	23, 1	@ Tag_ABI_FP_number_model
	.eabi_attribute	24, 1	@ Tag_ABI_align_needed
	.eabi_attribute	25, 1	@ Tag_ABI_align_preserved
	.eabi_attribute	28, 1	@ Tag_ABI_VFP_args
	.eabi_attribute	38, 1	@ Tag_ABI_FP_16bit_format
	.eabi_attribute	18, 2	@ Tag_ABI_PCS_wchar_t
	.eabi_attribute	26, 1	@ Tag_ABI_enum_size
	.eabi_attribute	14, 0	@ Tag_ABI_PCS_R9_use
	.file	"stm32f4xx_it.c"
	.file	1 "D:\\ProgramFiles\\KEIL\\ARM\\ARMCLANG\\Bin\\..\\include" "stdint.h"
	.file	2 "f:\\OwnProject\\CubeMX\\stm32f407_ll_usart_dma\\MDK-ARM" "../Drivers/STM32F4xx_HAL_Driver/Inc\\stm32f4xx_ll_dma.h"
	.file	3 "f:\\OwnProject\\CubeMX\\stm32f407_ll_usart_dma\\MDK-ARM" "../User/BSP\\dev_usart.h"
	.file	4 "f:\\OwnProject\\CubeMX\\stm32f407_ll_usart_dma\\MDK-ARM" "../Drivers/CMSIS/Device/ST/STM32F4xx/Include\\stm32f407xx.h"
	.section	.text.NMI_Handler,"ax",%progbits
	.hidden	NMI_Handler                     @ -- Begin function NMI_Handler
	.globl	NMI_Handler
	.p2align	2
	.type	NMI_Handler,%function
	.code	16                              @ @NMI_Handler
	.thumb_func
NMI_Handler:
.Lfunc_begin0:
	.file	5 "f:\\OwnProject\\CubeMX\\stm32f407_ll_usart_dma\\MDK-ARM" "../Core/Src/stm32f4xx_it.c"
	.loc	5 71 0                          @ ../Core/Src/stm32f4xx_it.c:71:0
	.fnstart
	.cfi_sections .debug_frame
	.cfi_startproc
@ %bb.0:
	.p2align	2
.LBB0_1:                                @ =>This Inner Loop Header: Depth=1
	.loc	5 76 3 prologue_end             @ ../Core/Src/stm32f4xx_it.c:76:3
	b	.LBB0_1
.Ltmp0:
.Lfunc_end0:
	.size	NMI_Handler, .Lfunc_end0-NMI_Handler
	.cfi_endproc
	.cantunwind
	.fnend
                                        @ -- End function
	.section	.text.HardFault_Handler,"ax",%progbits
	.hidden	HardFault_Handler               @ -- Begin function HardFault_Handler
	.globl	HardFault_Handler
	.p2align	2
	.type	HardFault_Handler,%function
	.code	16                              @ @HardFault_Handler
	.thumb_func
HardFault_Handler:
.Lfunc_begin1:
	.loc	5 86 0                          @ ../Core/Src/stm32f4xx_it.c:86:0
	.fnstart
	.cfi_startproc
@ %bb.0:
	.p2align	2
.LBB1_1:                                @ =>This Inner Loop Header: Depth=1
	.loc	5 90 3 prologue_end             @ ../Core/Src/stm32f4xx_it.c:90:3
	b	.LBB1_1
.Ltmp1:
.Lfunc_end1:
	.size	HardFault_Handler, .Lfunc_end1-HardFault_Handler
	.cfi_endproc
	.cantunwind
	.fnend
                                        @ -- End function
	.section	.text.MemManage_Handler,"ax",%progbits
	.hidden	MemManage_Handler               @ -- Begin function MemManage_Handler
	.globl	MemManage_Handler
	.p2align	2
	.type	MemManage_Handler,%function
	.code	16                              @ @MemManage_Handler
	.thumb_func
MemManage_Handler:
.Lfunc_begin2:
	.loc	5 101 0                         @ ../Core/Src/stm32f4xx_it.c:101:0
	.fnstart
	.cfi_startproc
@ %bb.0:
	.p2align	2
.LBB2_1:                                @ =>This Inner Loop Header: Depth=1
	.loc	5 105 3 prologue_end            @ ../Core/Src/stm32f4xx_it.c:105:3
	b	.LBB2_1
.Ltmp2:
.Lfunc_end2:
	.size	MemManage_Handler, .Lfunc_end2-MemManage_Handler
	.cfi_endproc
	.cantunwind
	.fnend
                                        @ -- End function
	.section	.text.BusFault_Handler,"ax",%progbits
	.hidden	BusFault_Handler                @ -- Begin function BusFault_Handler
	.globl	BusFault_Handler
	.p2align	2
	.type	BusFault_Handler,%function
	.code	16                              @ @BusFault_Handler
	.thumb_func
BusFault_Handler:
.Lfunc_begin3:
	.loc	5 116 0                         @ ../Core/Src/stm32f4xx_it.c:116:0
	.fnstart
	.cfi_startproc
@ %bb.0:
	.p2align	2
.LBB3_1:                                @ =>This Inner Loop Header: Depth=1
	.loc	5 120 3 prologue_end            @ ../Core/Src/stm32f4xx_it.c:120:3
	b	.LBB3_1
.Ltmp3:
.Lfunc_end3:
	.size	BusFault_Handler, .Lfunc_end3-BusFault_Handler
	.cfi_endproc
	.cantunwind
	.fnend
                                        @ -- End function
	.section	.text.UsageFault_Handler,"ax",%progbits
	.hidden	UsageFault_Handler              @ -- Begin function UsageFault_Handler
	.globl	UsageFault_Handler
	.p2align	2
	.type	UsageFault_Handler,%function
	.code	16                              @ @UsageFault_Handler
	.thumb_func
UsageFault_Handler:
.Lfunc_begin4:
	.loc	5 131 0                         @ ../Core/Src/stm32f4xx_it.c:131:0
	.fnstart
	.cfi_startproc
@ %bb.0:
	.p2align	2
.LBB4_1:                                @ =>This Inner Loop Header: Depth=1
	.loc	5 135 3 prologue_end            @ ../Core/Src/stm32f4xx_it.c:135:3
	b	.LBB4_1
.Ltmp4:
.Lfunc_end4:
	.size	UsageFault_Handler, .Lfunc_end4-UsageFault_Handler
	.cfi_endproc
	.cantunwind
	.fnend
                                        @ -- End function
	.section	.text.SVC_Handler,"ax",%progbits
	.hidden	SVC_Handler                     @ -- Begin function SVC_Handler
	.globl	SVC_Handler
	.p2align	2
	.type	SVC_Handler,%function
	.code	16                              @ @SVC_Handler
	.thumb_func
SVC_Handler:
.Lfunc_begin5:
	.loc	5 146 0                         @ ../Core/Src/stm32f4xx_it.c:146:0
	.fnstart
	.cfi_startproc
@ %bb.0:
	.loc	5 153 1 prologue_end            @ ../Core/Src/stm32f4xx_it.c:153:1
	bx	lr
.Ltmp5:
.Lfunc_end5:
	.size	SVC_Handler, .Lfunc_end5-SVC_Handler
	.cfi_endproc
	.cantunwind
	.fnend
                                        @ -- End function
	.section	.text.DebugMon_Handler,"ax",%progbits
	.hidden	DebugMon_Handler                @ -- Begin function DebugMon_Handler
	.globl	DebugMon_Handler
	.p2align	2
	.type	DebugMon_Handler,%function
	.code	16                              @ @DebugMon_Handler
	.thumb_func
DebugMon_Handler:
.Lfunc_begin6:
	.loc	5 159 0                         @ ../Core/Src/stm32f4xx_it.c:159:0
	.fnstart
	.cfi_startproc
@ %bb.0:
	.loc	5 166 1 prologue_end            @ ../Core/Src/stm32f4xx_it.c:166:1
	bx	lr
.Ltmp6:
.Lfunc_end6:
	.size	DebugMon_Handler, .Lfunc_end6-DebugMon_Handler
	.cfi_endproc
	.cantunwind
	.fnend
                                        @ -- End function
	.section	.text.PendSV_Handler,"ax",%progbits
	.hidden	PendSV_Handler                  @ -- Begin function PendSV_Handler
	.globl	PendSV_Handler
	.p2align	2
	.type	PendSV_Handler,%function
	.code	16                              @ @PendSV_Handler
	.thumb_func
PendSV_Handler:
.Lfunc_begin7:
	.loc	5 172 0                         @ ../Core/Src/stm32f4xx_it.c:172:0
	.fnstart
	.cfi_startproc
@ %bb.0:
	.loc	5 179 1 prologue_end            @ ../Core/Src/stm32f4xx_it.c:179:1
	bx	lr
.Ltmp7:
.Lfunc_end7:
	.size	PendSV_Handler, .Lfunc_end7-PendSV_Handler
	.cfi_endproc
	.cantunwind
	.fnend
                                        @ -- End function
	.section	.text.SysTick_Handler,"ax",%progbits
	.hidden	SysTick_Handler                 @ -- Begin function SysTick_Handler
	.globl	SysTick_Handler
	.p2align	2
	.type	SysTick_Handler,%function
	.code	16                              @ @SysTick_Handler
	.thumb_func
SysTick_Handler:
.Lfunc_begin8:
	.loc	5 185 0                         @ ../Core/Src/stm32f4xx_it.c:185:0
	.fnstart
	.cfi_startproc
@ %bb.0:
	.loc	5 193 1 prologue_end            @ ../Core/Src/stm32f4xx_it.c:193:1
	bx	lr
.Ltmp8:
.Lfunc_end8:
	.size	SysTick_Handler, .Lfunc_end8-SysTick_Handler
	.cfi_endproc
	.cantunwind
	.fnend
                                        @ -- End function
	.section	.text.DMA1_Stream5_IRQHandler,"ax",%progbits
	.hidden	DMA1_Stream5_IRQHandler         @ -- Begin function DMA1_Stream5_IRQHandler
	.globl	DMA1_Stream5_IRQHandler
	.p2align	2
	.type	DMA1_Stream5_IRQHandler,%function
	.code	16                              @ @DMA1_Stream5_IRQHandler
	.thumb_func
DMA1_Stream5_IRQHandler:
.Lfunc_begin9:
	.loc	5 206 0                         @ ../Core/Src/stm32f4xx_it.c:206:0
	.fnstart
	.cfi_startproc
@ %bb.0:
	.save	{r4, lr}
	push	{r4, lr}
	.cfi_def_cfa_offset 8
	.cfi_offset lr, -4
	.cfi_offset r4, -8
	movw	r4, #24580
	movt	r4, #16386
.Ltmp9:
	@DEBUG_VALUE: LL_DMA_IsEnabledIT_HT:Stream <- 5
	.loc	2 2748 11 prologue_end          @ ../Drivers/STM32F4xx_HAL_Driver/Inc\stm32f4xx_ll_dma.h:2748:11
	ldr.w	r0, [r4, #132]
.Ltmp10:
	.loc	5 208 52                        @ ../Core/Src/stm32f4xx_it.c:208:52
	lsls	r0, r0, #28
	@DEBUG_VALUE: LL_DMA_IsEnabledIT_HT:DMAx <- undef
.Ltmp11:
	.loc	2 1706 11                       @ ../Drivers/STM32F4xx_HAL_Driver/Inc\stm32f4xx_ll_dma.h:1706:11
	itt	mi
	ldrmi	r0, [r4]
.Ltmp12:
	.loc	5 208 7                         @ ../Core/Src/stm32f4xx_it.c:208:7
	lslsmi.w	r0, r0, #21
	@DEBUG_VALUE: LL_DMA_IsActiveFlag_HT5:DMAx <- undef
	bmi	.LBB9_3
.Ltmp13:
.LBB9_1:
	@DEBUG_VALUE: LL_DMA_IsEnabledIT_TC:Stream <- 5
	.loc	2 2788 11                       @ ../Drivers/STM32F4xx_HAL_Driver/Inc\stm32f4xx_ll_dma.h:2788:11
	ldr.w	r0, [r4, #132]
.Ltmp14:
	.loc	5 213 52                        @ ../Core/Src/stm32f4xx_it.c:213:52
	lsls	r0, r0, #27
	@DEBUG_VALUE: LL_DMA_IsEnabledIT_TC:DMAx <- undef
.Ltmp15:
	.loc	2 1794 11                       @ ../Drivers/STM32F4xx_HAL_Driver/Inc\stm32f4xx_ll_dma.h:1794:11
	itt	mi
	ldrmi	r0, [r4]
.Ltmp16:
	.loc	5 213 7                         @ ../Core/Src/stm32f4xx_it.c:213:7
	lslsmi.w	r0, r0, #20
	@DEBUG_VALUE: LL_DMA_IsActiveFlag_TC5:DMAx <- undef
	bmi	.LBB9_4
.Ltmp17:
@ %bb.2:
	.loc	5 222 1                         @ ../Core/Src/stm32f4xx_it.c:222:1
	pop	{r4, pc}
	.p2align	2
.LBB9_3:
.Ltmp18:
	.loc	5 209 5                         @ ../Core/Src/stm32f4xx_it.c:209:5
	movs	r0, #1
	bl	usart_dmarx_ht_isr
.Ltmp19:
	.loc	5 0 5 is_stmt 0                 @ ../Core/Src/stm32f4xx_it.c:0:5
	mov.w	r0, #1024
.Ltmp20:
	.loc	2 2146 3 is_stmt 1              @ ../Drivers/STM32F4xx_HAL_Driver/Inc\stm32f4xx_ll_dma.h:2146:3
	str	r0, [r4, #8]
.Ltmp21:
	@DEBUG_VALUE: LL_DMA_ClearFlag_HT5:DMAx <- undef
	.loc	2 0 3 is_stmt 0                 @ ../Drivers/STM32F4xx_HAL_Driver/Inc\stm32f4xx_ll_dma.h:0:3
	b	.LBB9_1
.Ltmp22:
	.p2align	2
.LBB9_4:
	.loc	5 214 5 is_stmt 1               @ ../Core/Src/stm32f4xx_it.c:214:5
	movs	r0, #1
	bl	usart_dmarx_tc_isr
.Ltmp23:
	.loc	5 0 5 is_stmt 0                 @ ../Core/Src/stm32f4xx_it.c:0:5
	mov.w	r0, #2048
.Ltmp24:
	.loc	2 2234 3 is_stmt 1              @ ../Drivers/STM32F4xx_HAL_Driver/Inc\stm32f4xx_ll_dma.h:2234:3
	str	r0, [r4, #8]
.Ltmp25:
	@DEBUG_VALUE: LL_DMA_ClearFlag_TC5:DMAx <- undef
	.loc	5 222 1                         @ ../Core/Src/stm32f4xx_it.c:222:1
	pop	{r4, pc}
.Ltmp26:
.Lfunc_end9:
	.size	DMA1_Stream5_IRQHandler, .Lfunc_end9-DMA1_Stream5_IRQHandler
	.cfi_endproc
	.cantunwind
	.fnend
                                        @ -- End function
	.section	.text.DMA1_Stream6_IRQHandler,"ax",%progbits
	.hidden	DMA1_Stream6_IRQHandler         @ -- Begin function DMA1_Stream6_IRQHandler
	.globl	DMA1_Stream6_IRQHandler
	.p2align	2
	.type	DMA1_Stream6_IRQHandler,%function
	.code	16                              @ @DMA1_Stream6_IRQHandler
	.thumb_func
DMA1_Stream6_IRQHandler:
.Lfunc_begin10:
	.loc	5 228 0                         @ ../Core/Src/stm32f4xx_it.c:228:0
	.fnstart
	.cfi_startproc
@ %bb.0:
	.save	{r4, lr}
	push	{r4, lr}
	.cfi_def_cfa_offset 8
	.cfi_offset lr, -4
	.cfi_offset r4, -8
	movw	r4, #24580
	movt	r4, #16386
.Ltmp27:
	@DEBUG_VALUE: LL_DMA_IsEnabledIT_TC:Stream <- 6
	.loc	2 2788 11 prologue_end          @ ../Drivers/STM32F4xx_HAL_Driver/Inc\stm32f4xx_ll_dma.h:2788:11
	ldr.w	r0, [r4, #156]
.Ltmp28:
	.loc	5 230 52                        @ ../Core/Src/stm32f4xx_it.c:230:52
	lsls	r0, r0, #27
	@DEBUG_VALUE: LL_DMA_IsEnabledIT_TC:DMAx <- undef
.Ltmp29:
	.loc	2 1805 11                       @ ../Drivers/STM32F4xx_HAL_Driver/Inc\stm32f4xx_ll_dma.h:1805:11
	itt	mi
	ldrmi	r0, [r4]
.Ltmp30:
	.loc	5 230 7                         @ ../Core/Src/stm32f4xx_it.c:230:7
	lslsmi.w	r0, r0, #10
	@DEBUG_VALUE: LL_DMA_IsActiveFlag_TC6:DMAx <- undef
	bmi	.LBB10_2
.Ltmp31:
@ %bb.1:
	.loc	5 239 1                         @ ../Core/Src/stm32f4xx_it.c:239:1
	pop	{r4, pc}
	.p2align	2
.LBB10_2:
.Ltmp32:
	.loc	5 231 5                         @ ../Core/Src/stm32f4xx_it.c:231:5
	movs	r0, #1
	bl	usart_dmatx_tc_isr
.Ltmp33:
	.loc	5 0 5 is_stmt 0                 @ ../Core/Src/stm32f4xx_it.c:0:5
	mov.w	r0, #2097152
.Ltmp34:
	.loc	2 2245 3 is_stmt 1              @ ../Drivers/STM32F4xx_HAL_Driver/Inc\stm32f4xx_ll_dma.h:2245:3
	str	r0, [r4, #8]
.Ltmp35:
	@DEBUG_VALUE: LL_DMA_ClearFlag_TC6:DMAx <- undef
	.loc	5 239 1                         @ ../Core/Src/stm32f4xx_it.c:239:1
	pop	{r4, pc}
.Ltmp36:
.Lfunc_end10:
	.size	DMA1_Stream6_IRQHandler, .Lfunc_end10-DMA1_Stream6_IRQHandler
	.cfi_endproc
	.cantunwind
	.fnend
                                        @ -- End function
	.section	.text.USART1_IRQHandler,"ax",%progbits
	.hidden	USART1_IRQHandler               @ -- Begin function USART1_IRQHandler
	.globl	USART1_IRQHandler
	.p2align	2
	.type	USART1_IRQHandler,%function
	.code	16                              @ @USART1_IRQHandler
	.thumb_func
USART1_IRQHandler:
.Lfunc_begin11:
	.loc	5 245 0                         @ ../Core/Src/stm32f4xx_it.c:245:0
	.fnstart
	.cfi_startproc
@ %bb.0:
	.save	{r4, lr}
	push	{r4, lr}
	.cfi_def_cfa_offset 8
	.cfi_offset lr, -4
	.cfi_offset r4, -8
	.pad	#8
	sub	sp, #8
	.cfi_def_cfa_offset 16
	movw	r4, #4096
	movt	r4, #16385
.Ltmp37:
	.file	6 "f:\\OwnProject\\CubeMX\\stm32f407_ll_usart_dma\\MDK-ARM" "../Drivers/STM32F4xx_HAL_Driver/Inc\\stm32f4xx_ll_usart.h"
	.loc	6 2218 11 prologue_end          @ ../Drivers/STM32F4xx_HAL_Driver/Inc\stm32f4xx_ll_usart.h:2218:11
	ldr	r0, [r4, #12]
.Ltmp38:
	.loc	5 247 43                        @ ../Core/Src/stm32f4xx_it.c:247:43
	lsls	r0, r0, #27
	@DEBUG_VALUE: LL_USART_IsEnabledIT_IDLE:USARTx <- undef
.Ltmp39:
	.loc	6 1783 11                       @ ../Drivers/STM32F4xx_HAL_Driver/Inc\stm32f4xx_ll_usart.h:1783:11
	itt	mi
	ldrmi	r0, [r4]
.Ltmp40:
	.loc	5 247 9                         @ ../Core/Src/stm32f4xx_it.c:247:9
	lslsmi.w	r0, r0, #27
	@DEBUG_VALUE: LL_USART_IsActiveFlag_IDLE:USARTx <- undef
	bmi	.LBB11_2
@ %bb.1:
	.loc	5 256 1                         @ ../Core/Src/stm32f4xx_it.c:256:1
	add	sp, #8
	pop	{r4, pc}
	.p2align	2
.LBB11_2:
.Ltmp41:
	.loc	5 249 9                         @ ../Core/Src/stm32f4xx_it.c:249:9
	movs	r0, #0
	bl	usart_dmarx_idle_isr
.Ltmp42:
	.loc	6 1956 20                       @ ../Drivers/STM32F4xx_HAL_Driver/Inc\stm32f4xx_ll_usart.h:1956:20
	ldr	r0, [r4]
	.loc	6 1956 10 is_stmt 0             @ ../Drivers/STM32F4xx_HAL_Driver/Inc\stm32f4xx_ll_usart.h:1956:10
	str	r0, [sp, #4]
	.loc	6 1957 10 is_stmt 1             @ ../Drivers/STM32F4xx_HAL_Driver/Inc\stm32f4xx_ll_usart.h:1957:10
	ldr	r0, [sp, #4]
	.loc	6 1958 20                       @ ../Drivers/STM32F4xx_HAL_Driver/Inc\stm32f4xx_ll_usart.h:1958:20
	ldr	r0, [r4, #4]
	.loc	6 1958 10 is_stmt 0             @ ../Drivers/STM32F4xx_HAL_Driver/Inc\stm32f4xx_ll_usart.h:1958:10
	str	r0, [sp, #4]
	.loc	6 1959 10 is_stmt 1             @ ../Drivers/STM32F4xx_HAL_Driver/Inc\stm32f4xx_ll_usart.h:1959:10
	ldr	r0, [sp, #4]
.Ltmp43:
	@DEBUG_VALUE: LL_USART_ClearFlag_IDLE:USARTx <- undef
	.loc	5 256 1                         @ ../Core/Src/stm32f4xx_it.c:256:1
	add	sp, #8
	pop	{r4, pc}
.Ltmp44:
.Lfunc_end11:
	.size	USART1_IRQHandler, .Lfunc_end11-USART1_IRQHandler
	.cfi_endproc
	.cantunwind
	.fnend
                                        @ -- End function
	.section	.text.USART2_IRQHandler,"ax",%progbits
	.hidden	USART2_IRQHandler               @ -- Begin function USART2_IRQHandler
	.globl	USART2_IRQHandler
	.p2align	2
	.type	USART2_IRQHandler,%function
	.code	16                              @ @USART2_IRQHandler
	.thumb_func
USART2_IRQHandler:
.Lfunc_begin12:
	.loc	5 262 0                         @ ../Core/Src/stm32f4xx_it.c:262:0
	.fnstart
	.cfi_startproc
@ %bb.0:
	.save	{r4, lr}
	push	{r4, lr}
	.cfi_def_cfa_offset 8
	.cfi_offset lr, -4
	.cfi_offset r4, -8
	.pad	#8
	sub	sp, #8
	.cfi_def_cfa_offset 16
	movw	r4, #17408
	movt	r4, #16384
.Ltmp45:
	.loc	6 2218 11 prologue_end          @ ../Drivers/STM32F4xx_HAL_Driver/Inc\stm32f4xx_ll_usart.h:2218:11
	ldr	r0, [r4, #12]
.Ltmp46:
	.loc	5 264 43                        @ ../Core/Src/stm32f4xx_it.c:264:43
	lsls	r0, r0, #27
	@DEBUG_VALUE: LL_USART_IsEnabledIT_IDLE:USARTx <- undef
.Ltmp47:
	.loc	6 1783 11                       @ ../Drivers/STM32F4xx_HAL_Driver/Inc\stm32f4xx_ll_usart.h:1783:11
	itt	mi
	ldrmi	r0, [r4]
.Ltmp48:
	.loc	5 264 9                         @ ../Core/Src/stm32f4xx_it.c:264:9
	lslsmi.w	r0, r0, #27
	@DEBUG_VALUE: LL_USART_IsActiveFlag_IDLE:USARTx <- undef
	bmi	.LBB12_2
@ %bb.1:
	.loc	5 273 1                         @ ../Core/Src/stm32f4xx_it.c:273:1
	add	sp, #8
	pop	{r4, pc}
	.p2align	2
.LBB12_2:
.Ltmp49:
	.loc	5 266 9                         @ ../Core/Src/stm32f4xx_it.c:266:9
	movs	r0, #1
	bl	usart_dmarx_idle_isr
.Ltmp50:
	.loc	6 1956 20                       @ ../Drivers/STM32F4xx_HAL_Driver/Inc\stm32f4xx_ll_usart.h:1956:20
	ldr	r0, [r4]
	.loc	6 1956 10 is_stmt 0             @ ../Drivers/STM32F4xx_HAL_Driver/Inc\stm32f4xx_ll_usart.h:1956:10
	str	r0, [sp, #4]
	.loc	6 1957 10 is_stmt 1             @ ../Drivers/STM32F4xx_HAL_Driver/Inc\stm32f4xx_ll_usart.h:1957:10
	ldr	r0, [sp, #4]
	.loc	6 1958 20                       @ ../Drivers/STM32F4xx_HAL_Driver/Inc\stm32f4xx_ll_usart.h:1958:20
	ldr	r0, [r4, #4]
	.loc	6 1958 10 is_stmt 0             @ ../Drivers/STM32F4xx_HAL_Driver/Inc\stm32f4xx_ll_usart.h:1958:10
	str	r0, [sp, #4]
	.loc	6 1959 10 is_stmt 1             @ ../Drivers/STM32F4xx_HAL_Driver/Inc\stm32f4xx_ll_usart.h:1959:10
	ldr	r0, [sp, #4]
.Ltmp51:
	@DEBUG_VALUE: LL_USART_ClearFlag_IDLE:USARTx <- undef
	.loc	5 273 1                         @ ../Core/Src/stm32f4xx_it.c:273:1
	add	sp, #8
	pop	{r4, pc}
.Ltmp52:
.Lfunc_end12:
	.size	USART2_IRQHandler, .Lfunc_end12-USART2_IRQHandler
	.cfi_endproc
	.cantunwind
	.fnend
                                        @ -- End function
	.section	.text.DMA2_Stream2_IRQHandler,"ax",%progbits
	.hidden	DMA2_Stream2_IRQHandler         @ -- Begin function DMA2_Stream2_IRQHandler
	.globl	DMA2_Stream2_IRQHandler
	.p2align	2
	.type	DMA2_Stream2_IRQHandler,%function
	.code	16                              @ @DMA2_Stream2_IRQHandler
	.thumb_func
DMA2_Stream2_IRQHandler:
.Lfunc_begin13:
	.loc	5 279 0                         @ ../Core/Src/stm32f4xx_it.c:279:0
	.fnstart
	.cfi_startproc
@ %bb.0:
	.save	{r4, lr}
	push	{r4, lr}
	.cfi_def_cfa_offset 8
	.cfi_offset lr, -4
	.cfi_offset r4, -8
	movw	r4, #25600
	movt	r4, #16386
.Ltmp53:
	@DEBUG_VALUE: LL_DMA_IsEnabledIT_HT:Stream <- 2
	.loc	2 2748 11 prologue_end          @ ../Drivers/STM32F4xx_HAL_Driver/Inc\stm32f4xx_ll_dma.h:2748:11
	ldr	r0, [r4, #64]
.Ltmp54:
	.loc	5 282 52                        @ ../Core/Src/stm32f4xx_it.c:282:52
	lsls	r0, r0, #28
	@DEBUG_VALUE: LL_DMA_IsEnabledIT_HT:DMAx <- undef
.Ltmp55:
	.loc	2 1673 11                       @ ../Drivers/STM32F4xx_HAL_Driver/Inc\stm32f4xx_ll_dma.h:1673:11
	itt	mi
	ldrmi	r0, [r4]
.Ltmp56:
	.loc	5 282 7                         @ ../Core/Src/stm32f4xx_it.c:282:7
	lslsmi.w	r0, r0, #11
	@DEBUG_VALUE: LL_DMA_IsActiveFlag_HT2:DMAx <- undef
	bmi	.LBB13_3
.Ltmp57:
.LBB13_1:
	@DEBUG_VALUE: LL_DMA_IsEnabledIT_TC:Stream <- 2
	.loc	2 2788 11                       @ ../Drivers/STM32F4xx_HAL_Driver/Inc\stm32f4xx_ll_dma.h:2788:11
	ldr	r0, [r4, #64]
.Ltmp58:
	.loc	5 287 52                        @ ../Core/Src/stm32f4xx_it.c:287:52
	lsls	r0, r0, #27
	@DEBUG_VALUE: LL_DMA_IsEnabledIT_TC:DMAx <- undef
.Ltmp59:
	.loc	2 1761 11                       @ ../Drivers/STM32F4xx_HAL_Driver/Inc\stm32f4xx_ll_dma.h:1761:11
	itt	mi
	ldrmi	r0, [r4]
.Ltmp60:
	.loc	5 287 7                         @ ../Core/Src/stm32f4xx_it.c:287:7
	lslsmi.w	r0, r0, #10
	@DEBUG_VALUE: LL_DMA_IsActiveFlag_TC2:DMAx <- undef
	bmi	.LBB13_4
.Ltmp61:
@ %bb.2:
	.loc	5 297 1                         @ ../Core/Src/stm32f4xx_it.c:297:1
	pop	{r4, pc}
	.p2align	2
.LBB13_3:
.Ltmp62:
	.loc	5 283 5                         @ ../Core/Src/stm32f4xx_it.c:283:5
	movs	r0, #0
	bl	usart_dmarx_ht_isr
.Ltmp63:
	.loc	5 0 5 is_stmt 0                 @ ../Core/Src/stm32f4xx_it.c:0:5
	mov.w	r0, #1048576
.Ltmp64:
	.loc	2 2113 3 is_stmt 1              @ ../Drivers/STM32F4xx_HAL_Driver/Inc\stm32f4xx_ll_dma.h:2113:3
	str	r0, [r4, #8]
.Ltmp65:
	@DEBUG_VALUE: LL_DMA_ClearFlag_HT2:DMAx <- undef
	.loc	2 0 3 is_stmt 0                 @ ../Drivers/STM32F4xx_HAL_Driver/Inc\stm32f4xx_ll_dma.h:0:3
	b	.LBB13_1
.Ltmp66:
	.p2align	2
.LBB13_4:
	.loc	5 288 5 is_stmt 1               @ ../Core/Src/stm32f4xx_it.c:288:5
	movs	r0, #0
	bl	usart_dmarx_tc_isr
.Ltmp67:
	.loc	5 0 5 is_stmt 0                 @ ../Core/Src/stm32f4xx_it.c:0:5
	mov.w	r0, #2097152
.Ltmp68:
	.loc	2 2201 3 is_stmt 1              @ ../Drivers/STM32F4xx_HAL_Driver/Inc\stm32f4xx_ll_dma.h:2201:3
	str	r0, [r4, #8]
.Ltmp69:
	@DEBUG_VALUE: LL_DMA_ClearFlag_TC2:DMAx <- undef
	.loc	5 297 1                         @ ../Core/Src/stm32f4xx_it.c:297:1
	pop	{r4, pc}
.Ltmp70:
.Lfunc_end13:
	.size	DMA2_Stream2_IRQHandler, .Lfunc_end13-DMA2_Stream2_IRQHandler
	.cfi_endproc
	.cantunwind
	.fnend
                                        @ -- End function
	.section	.text.DMA2_Stream7_IRQHandler,"ax",%progbits
	.hidden	DMA2_Stream7_IRQHandler         @ -- Begin function DMA2_Stream7_IRQHandler
	.globl	DMA2_Stream7_IRQHandler
	.p2align	2
	.type	DMA2_Stream7_IRQHandler,%function
	.code	16                              @ @DMA2_Stream7_IRQHandler
	.thumb_func
DMA2_Stream7_IRQHandler:
.Lfunc_begin14:
	.loc	5 303 0                         @ ../Core/Src/stm32f4xx_it.c:303:0
	.fnstart
	.cfi_startproc
@ %bb.0:
	.save	{r4, lr}
	push	{r4, lr}
	.cfi_def_cfa_offset 8
	.cfi_offset lr, -4
	.cfi_offset r4, -8
	movw	r4, #25604
	movt	r4, #16386
.Ltmp71:
	@DEBUG_VALUE: LL_DMA_IsEnabledIT_TC:Stream <- 7
	.loc	2 2788 11 prologue_end          @ ../Drivers/STM32F4xx_HAL_Driver/Inc\stm32f4xx_ll_dma.h:2788:11
	ldr.w	r0, [r4, #180]
.Ltmp72:
	.loc	5 305 52                        @ ../Core/Src/stm32f4xx_it.c:305:52
	lsls	r0, r0, #27
	@DEBUG_VALUE: LL_DMA_IsEnabledIT_TC:DMAx <- undef
.Ltmp73:
	.loc	2 1816 11                       @ ../Drivers/STM32F4xx_HAL_Driver/Inc\stm32f4xx_ll_dma.h:1816:11
	itt	mi
	ldrmi	r0, [r4]
.Ltmp74:
	.loc	5 305 7                         @ ../Core/Src/stm32f4xx_it.c:305:7
	lslsmi.w	r0, r0, #4
	@DEBUG_VALUE: LL_DMA_IsActiveFlag_TC7:DMAx <- undef
	bmi	.LBB14_2
.Ltmp75:
@ %bb.1:
	.loc	5 314 1                         @ ../Core/Src/stm32f4xx_it.c:314:1
	pop	{r4, pc}
	.p2align	2
.LBB14_2:
.Ltmp76:
	.loc	5 306 5                         @ ../Core/Src/stm32f4xx_it.c:306:5
	movs	r0, #0
	bl	usart_dmatx_tc_isr
.Ltmp77:
	.loc	5 0 5 is_stmt 0                 @ ../Core/Src/stm32f4xx_it.c:0:5
	mov.w	r0, #134217728
.Ltmp78:
	.loc	2 2256 3 is_stmt 1              @ ../Drivers/STM32F4xx_HAL_Driver/Inc\stm32f4xx_ll_dma.h:2256:3
	str	r0, [r4, #8]
.Ltmp79:
	@DEBUG_VALUE: LL_DMA_ClearFlag_TC7:DMAx <- undef
	.loc	5 314 1                         @ ../Core/Src/stm32f4xx_it.c:314:1
	pop	{r4, pc}
.Ltmp80:
.Lfunc_end14:
	.size	DMA2_Stream7_IRQHandler, .Lfunc_end14-DMA2_Stream7_IRQHandler
	.cfi_endproc
	.cantunwind
	.fnend
                                        @ -- End function
	.section	".note.GNU-stack","",%progbits
	.eabi_attribute	30, 2	@ Tag_ABI_optimization_goals
	.ARM_attribute	16, 1	@ Tag_AV_eba