	.text
	.syntax unified
	.eabi_attribute	67, "2.09"	@ Tag_conformance
	.cpu	cortex-m4
	.eabi_attribute	6, 13	@ Tag_CPU_arch
	.eabi_attribute	7, 77	@ Tag_CPU_arch_profile
	.eabi_attribute	8, 0	@ Tag_ARM_ISA_use
	.eabi_attribute	9, 2	@ Tag_THUMB_ISA_use
	.fpu	fpv4-sp-d16
	.eabi_attribute	27, 1	@ Tag_ABI_HardFP_use
	.eabi_attribute	36, 1	@ Tag_FP_HP_extension
	.eabi_attribute	34, 1	@ Tag_CPU_unaligned_access
	.eabi_attribute	17, 1	@ Tag_ABI_PCS_GOT_use
	.eabi_attribute	20, 2	@ Tag_ABI_FP_denormal
	.eabi_attribute	21, 0	@ Tag_ABI_FP_exceptions
	.eabi_attribute	23, 1	@ Tag_ABI_FP_number_model
	.eabi_attribute	24, 1	@ Tag_ABI_align_needed
	.eabi_attribute	25, 1	@ Tag_ABI_align_preserved
	.eabi_attribute	28, 1	@ Tag_ABI_VFP_args
	.eabi_attribute	38, 1	@ Tag_ABI_FP_16bit_format
	.eabi_attribute	18, 2	@ Tag_ABI_PCS_wchar_t
	.eabi_attribute	26, 1	@ Tag_ABI_enum_size
	.eabi_attribute	14, 0	@ Tag_ABI_PCS_R9_use
	.file	"stm32f4xx_ll_usart.c"
	.file	1 "f:\\OwnProject\\CubeMX\\stm32f407_ll_usart_dma\\MDK-ARM" "../Drivers/CMSIS/Device/ST/STM32F4xx/Include\\stm32f4xx.h"
	.file	2 "D:\\ProgramFiles\\KEIL\\ARM\\ARMCLANG\\Bin\\..\\include" "stdint.h"
	.file	3 "f:\\OwnProject\\CubeMX\\stm32f407_ll_usart_dma\\MDK-ARM" "../Drivers/CMSIS/Device/ST/STM32F4xx/Include/stm32f407xx.h"
	.section	.text.LL_USART_DeInit,"ax",%progbits
	.hidden	LL_USART_DeInit                 @ -- Begin function LL_USART_DeInit
	.globl	LL_USART_DeInit
	.p2align	2
	.type	LL_USART_DeInit,%function
	.code	16                              @ @LL_USART_DeInit
	.thumb_func
LL_USART_DeInit:
.Lfunc_begin0:
	.file	4 "f:\\OwnProject\\CubeMX\\stm32f407_ll_usart_dma\\MDK-ARM" "../Drivers/STM32F4xx_HAL_Driver/Src/stm32f4xx_ll_usart.c"
	.loc	4 125 0                         @ ../Drivers/STM32F4xx_HAL_Driver/Src/stm32f4xx_ll_usart.c:125:0
	.fnstart
	.cfi_sections .debug_frame
	.cfi_startproc
@ %bb.0:
	@DEBUG_VALUE: LL_USART_DeInit:USARTx <- $r0
	.save	{r7, lr}
	push	{r7, lr}
	.cfi_def_cfa_offset 8
	.cfi_offset lr, -4
	.cfi_offset r7, -8
.Ltmp0:
	@DEBUG_VALUE: LL_USART_DeInit:status <- 0
	movw	r1, #20479
	movt	r1, #16384
.Ltmp1:
	.loc	4 129 3 prologue_end            @ ../Drivers/STM32F4xx_HAL_Driver/Src/stm32f4xx_ll_usart.c:129:3
	cmp	r0, r1
	bgt	.LBB0_5
.Ltmp2:
@ %bb.1:
	@DEBUG_VALUE: LL_USART_DeInit:status <- 0
	@DEBUG_VALUE: LL_USART_DeInit:USARTx <- $r0
	.loc	4 0 3 is_stmt 0                 @ ../Drivers/STM32F4xx_HAL_Driver/Src/stm32f4xx_ll_usart.c:0:3
	movw	r1, #17408
	movt	r1, #16384
	.loc	4 129 3                         @ ../Drivers/STM32F4xx_HAL_Driver/Src/stm32f4xx_ll_usart.c:129:3
	cmp	r0, r1
	beq	.LBB0_9
.Ltmp3:
@ %bb.2:
	@DEBUG_VALUE: LL_USART_DeInit:status <- 0
	@DEBUG_VALUE: LL_USART_DeInit:USARTx <- $r0
	.loc	4 0 3                           @ ../Drivers/STM32F4xx_HAL_Driver/Src/stm32f4xx_ll_usart.c:0:3
	movw	r1, #18432
	movt	r1, #16384
	.loc	4 129 3                         @ ../Drivers/STM32F4xx_HAL_Driver/Src/stm32f4xx_ll_usart.c:129:3
	cmp	r0, r1
	beq	.LBB0_10
.Ltmp4:
@ %bb.3:
	@DEBUG_VALUE: LL_USART_DeInit:status <- 0
	@DEBUG_VALUE: LL_USART_DeInit:USARTx <- $r0
	.loc	4 0 3                           @ ../Drivers/STM32F4xx_HAL_Driver/Src/stm32f4xx_ll_usart.c:0:3
	movw	r1, #19456
	movt	r1, #16384
	.loc	4 129 3                         @ ../Drivers/STM32F4xx_HAL_Driver/Src/stm32f4xx_ll_usart.c:129:3
	cmp	r0, r1
	bne	.LBB0_13
.Ltmp5:
@ %bb.4:
	@DEBUG_VALUE: LL_USART_DeInit:status <- 0
	@DEBUG_VALUE: LL_USART_DeInit:USARTx <- $r0
	.loc	4 0 3                           @ ../Drivers/STM32F4xx_HAL_Driver/Src/stm32f4xx_ll_usart.c:0:3
	movw	r0, #14368
.Ltmp6:
	@DEBUG_VALUE: LL_USART_DeInit:USARTx <- [DW_OP_LLVM_entry_value 1] $r0
	movt	r0, #16386
.Ltmp7:
	@DEBUG_VALUE: LL_APB1_GRP1_ForceReset:Periphs <- 524288
	.file	5 "f:\\OwnProject\\CubeMX\\stm32f407_ll_usart_dma\\MDK-ARM" "../Drivers/STM32F4xx_HAL_Driver/Inc\\stm32f4xx_ll_bus.h"
	.loc	5 1411 3 is_stmt 1              @ ../Drivers/STM32F4xx_HAL_Driver/Inc\stm32f4xx_ll_bus.h:1411:3
	ldr	r1, [r0]
	orr	r1, r1, #524288
	str	r1, [r0]
.Ltmp8:
	@DEBUG_VALUE: LL_APB1_GRP1_ReleaseReset:Periphs <- 524288
	.loc	5 1483 3                        @ ../Drivers/STM32F4xx_HAL_Driver/Inc\stm32f4xx_ll_bus.h:1483:3
	ldr	r1, [r0]
	bic	r1, r1, #524288
.Ltmp9:
	.loc	4 0 0 is_stmt 0                 @ ../Drivers/STM32F4xx_HAL_Driver/Src/stm32f4xx_ll_usart.c:0:0
	str	r1, [r0]
	movs	r0, #0
.Ltmp10:
	@DEBUG_VALUE: LL_USART_DeInit:status <- $r0
	.loc	4 232 3 is_stmt 1               @ ../Drivers/STM32F4xx_HAL_Driver/Src/stm32f4xx_ll_usart.c:232:3
	pop	{r7, pc}
.Ltmp11:
	.p2align	2
.LBB0_5:
	@DEBUG_VALUE: LL_USART_DeInit:status <- 0
	@DEBUG_VALUE: LL_USART_DeInit:USARTx <- $r0
	.loc	4 0 3 is_stmt 0                 @ ../Drivers/STM32F4xx_HAL_Driver/Src/stm32f4xx_ll_usart.c:0:3
	movw	r1, #20480
	movt	r1, #16384
	.loc	4 129 3 is_stmt 1               @ ../Drivers/STM32F4xx_HAL_Driver/Src/stm32f4xx_ll_usart.c:129:3
	cmp	r0, r1
	beq	.LBB0_11
.Ltmp12:
@ %bb.6:
	@DEBUG_VALUE: LL_USART_DeInit:status <- 0
	@DEBUG_VALUE: LL_USART_DeInit:USARTx <- $r0
	.loc	4 0 3 is_stmt 0                 @ ../Drivers/STM32F4xx_HAL_Driver/Src/stm32f4xx_ll_usart.c:0:3
	movw	r1, #4096
	movt	r1, #16385
	.loc	4 129 3                         @ ../Drivers/STM32F4xx_HAL_Driver/Src/stm32f4xx_ll_usart.c:129:3
	cmp	r0, r1
	beq	.LBB0_12
.Ltmp13:
@ %bb.7:
	@DEBUG_VALUE: LL_USART_DeInit:status <- 0
	@DEBUG_VALUE: LL_USART_DeInit:USARTx <- $r0
	.loc	4 0 3                           @ ../Drivers/STM32F4xx_HAL_Driver/Src/stm32f4xx_ll_usart.c:0:3
	movw	r1, #5120
	movt	r1, #16385
	.loc	4 129 3                         @ ../Drivers/STM32F4xx_HAL_Driver/Src/stm32f4xx_ll_usart.c:129:3
	cmp	r0, r1
	bne	.LBB0_13
.Ltmp14:
@ %bb.8:
	@DEBUG_VALUE: LL_USART_DeInit:status <- 0
	@DEBUG_VALUE: LL_USART_DeInit:USARTx <- $r0
	.loc	4 0 3                           @ ../Drivers/STM32F4xx_HAL_Driver/Src/stm32f4xx_ll_usart.c:0:3
	movw	r0, #14368
.Ltmp15:
	@DEBUG_VALUE: LL_USART_DeInit:USARTx <- [DW_OP_LLVM_entry_value 1] $r0
	movt	r0, #16386
.Ltmp16:
	@DEBUG_VALUE: LL_APB2_GRP1_ForceReset:Periphs <- 32
	.loc	5 1891 3 is_stmt 1              @ ../Drivers/STM32F4xx_HAL_Driver/Inc\stm32f4xx_ll_bus.h:1891:3
	ldr	r1, [r0, #4]
	orr	r1, r1, #32
	str	r1, [r0, #4]
.Ltmp17:
	@DEBUG_VALUE: LL_APB2_GRP1_ReleaseReset:Periphs <- 32
	.loc	5 1949 3                        @ ../Drivers/STM32F4xx_HAL_Driver/Inc\stm32f4xx_ll_bus.h:1949:3
	ldr	r1, [r0, #4]
	bic	r1, r1, #32
.Ltmp18:
	.loc	4 0 0 is_stmt 0                 @ ../Drivers/STM32F4xx_HAL_Driver/Src/stm32f4xx_ll_usart.c:0:0
	str	r1, [r0, #4]
	movs	r0, #0
.Ltmp19:
	@DEBUG_VALUE: LL_USART_DeInit:status <- $r0
	.loc	4 232 3 is_stmt 1               @ ../Drivers/STM32F4xx_HAL_Driver/Src/stm32f4xx_ll_usart.c:232:3
	pop	{r7, pc}
.Ltmp20:
	.p2align	2
.LBB0_9:
	@DEBUG_VALUE: LL_USART_DeInit:status <- 0
	@DEBUG_VALUE: LL_USART_DeInit:USARTx <- $r0
	.loc	4 0 3 is_stmt 0                 @ ../Drivers/STM32F4xx_HAL_Driver/Src/stm32f4xx_ll_usart.c:0:3
	movw	r0, #14368
.Ltmp21:
	@DEBUG_VALUE: LL_USART_DeInit:USARTx <- [DW_OP_LLVM_entry_value 1] $r0
	movt	r0, #16386
.Ltmp22:
	@DEBUG_VALUE: LL_APB1_GRP1_ForceReset:Periphs <- 131072
	.loc	5 1411 3 is_stmt 1              @ ../Drivers/STM32F4xx_HAL_Driver/Inc\stm32f4xx_ll_bus.h:1411:3
	ldr	r1, [r0]
	orr	r1, r1, #131072
	str	r1, [r0]
.Ltmp23:
	@DEBUG_VALUE: LL_APB1_GRP1_ReleaseReset:Periphs <- 131072
	.loc	5 1483 3                        @ ../Drivers/STM32F4xx_HAL_Driver/Inc\stm32f4xx_ll_bus.h:1483:3
	ldr	r1, [r0]
	bic	r1, r1, #131072
.Ltmp24:
	.loc	4 0 0 is_stmt 0                 @ ../Drivers/STM32F4xx_HAL_Driver/Src/stm32f4xx_ll_usart.c:0:0
	str	r1, [r0]
	movs	r0, #0
.Ltmp25:
	@DEBUG_VALUE: LL_USART_DeInit:status <- $r0
	.loc	4 232 3 is_stmt 1               @ ../Drivers/STM32F4xx_HAL_Driver/Src/stm32f4xx_ll_usart.c:232:3
	pop	{r7, pc}
.Ltmp26:
	.p2align	2
.LBB0_10:
	@DEBUG_VALUE: LL_USART_DeInit:status <- 0
	@DEBUG_VALUE: LL_USART_DeInit:USARTx <- $r0
	.loc	4 0 3 is_stmt 0                 @ ../Drivers/STM32F4xx_HAL_Driver/Src/stm32f4xx_ll_usart.c:0:3
	movw	r0, #14368
.Ltmp27:
	@DEBUG_VALUE: LL_USART_DeInit:USARTx <- [DW_OP_LLVM_entry_value 1] $r0
	movt	r0, #16386
.Ltmp28:
	@DEBUG_VALUE: LL_APB1_GRP1_ForceReset:Periphs <- 262144
	.loc	5 1411 3 is_stmt 1              @ ../Drivers/STM32F4xx_HAL_Driver/Inc\stm32f4xx_ll_bus.h:1411:3
	ldr	r1, [r0]
	orr	r1, r1, #262144
	str	r1, [r0]
.Ltmp29:
	@DEBUG_VALUE: LL_APB1_GRP1_ReleaseReset:Periphs <- 262144
	.loc	5 1483 3                        @ ../Drivers/STM32F4xx_HAL_Driver/Inc\stm32f4xx_ll_bus.h:1483:3
	ldr	r1, [r0]
	bic	r1, r1, #262144
.Ltmp30:
	.loc	4 0 0 is_stmt 0                 @ ../Drivers/STM32F4xx_HAL_Driver/Src/stm32f4xx_ll_usart.c:0:0
	str	r1, [r0]
	movs	r0, #0
.Ltmp31:
	@DEBUG_VALUE: LL_USART_DeInit:status <- $r0
	.loc	4 232 3 is_stmt 1               @ ../Drivers/STM32F4xx_HAL_Driver/Src/stm32f4xx_ll_usart.c:232:3
	pop	{r7, pc}
.Ltmp32:
	.p2align	2
.LBB0_11:
	@DEBUG_VALUE: LL_USART_DeInit:status <- 0
	@DEBUG_VALUE: LL_USART_DeInit:USARTx <- $r0
	.loc	4 0 3 is_stmt 0                 @ ../Drivers/STM32F4xx_HAL_Driver/Src/stm32f4xx_ll_usart.c:0:3
	movw	r0, #14368
.Ltmp33:
	@DEBUG_VALUE: LL_USART_DeInit:USARTx <- [DW_OP_LLVM_entry_value 1] $r0
	movt	r0, #16386
.Ltmp34:
	@DEBUG_VALUE: LL_APB1_GRP1_ForceReset:Periphs <- 1048576
	.loc	5 1411 3 is_stmt 1              @ ../Drivers/STM32F4xx_HAL_Driver/Inc\stm32f4xx_ll_bus.h:1411:3
	ldr	r1, [r0]
	orr	r1, r1, #1048576
	str	r1, [r0]
.Ltmp35:
	@DEBUG_VALUE: LL_APB1_GRP1_ReleaseReset:Periphs <- 1048576
	.loc	5 1483 3                        @ ../Drivers/STM32F4xx_HAL_Driver/Inc\stm32f4xx_ll_bus.h:1483:3
	ldr	r1, [r0]
	bic	r1, r1, #1048576
.Ltmp36:
	.loc	4 0 0 is_stmt 0                 @ ../Drivers/STM32F4xx_HAL_Driver/Src/stm32f4xx_ll_usart.c:0:0
	str	r1, [r0]
	movs	r0, #0
.Ltmp37:
	@DEBUG_VALUE: LL_USART_DeInit:status <- $r0
	.loc	4 232 3 is_stmt 1               @ ../Drivers/STM32F4xx_HAL_Driver/Src/stm32f4xx_ll_usart.c:232:3
	pop	{r7, pc}
.Ltmp38:
	.p2align	2
.LBB0_12:
	@DEBUG_VALUE: LL_USART_DeInit:status <- 0
	@DEBUG_VALUE: LL_USART_DeInit:USARTx <- $r0
	.loc	4 0 3 is_stmt 0                 @ ../Drivers/STM32F4xx_HAL_Driver/Src/stm32f4xx_ll_usart.c:0:3
	movw	r0, #14368
.Ltmp39:
	@DEBUG_VALUE: LL_USART_DeInit:USARTx <- [DW_OP_LLVM_entry_value 1] $r0
	movt	r0, #16386
.Ltmp40:
	@DEBUG_VALUE: LL_APB2_GRP1_ForceReset:Periphs <- 16
	.loc	5 1891 3 is_stmt 1              @ ../Drivers/STM32F4xx_HAL_Driver/Inc\stm32f4xx_ll_bus.h:1891:3
	ldr	r1, [r0, #4]
	orr	r1, r1, #16
	str	r1, [r0, #4]
.Ltmp41:
	@DEBUG_VALUE: LL_APB2_GRP1_ReleaseReset:Periphs <- 16
	.loc	5 1949 3                        @ ../Drivers/STM32F4xx_HAL_Driver/Inc\stm32f4xx_ll_bus.h:1949:3
	ldr	r1, [r0, #4]
	bic	r1, r1, #16
.Ltmp42:
	.loc	4 0 0 is_stmt 0                 @ ../Drivers/STM32F4xx_HAL_Driver/Src/stm32f4xx_ll_usart.c:0:0
	str	r1, [r0, #4]
	movs	r0, #0
.Ltmp43:
	@DEBUG_VALUE: LL_USART_DeInit:status <- $r0
	.loc	4 232 3 is_stmt 1               @ ../Drivers/STM32F4xx_HAL_Driver/Src/stm32f4xx_ll_usart.c:232:3
	pop	{r7, pc}
.Ltmp44:
	.p2align	2
.LBB0_13:
	@DEBUG_VALUE: LL_USART_DeInit:status <- 0
	@DEBUG_VALUE: LL_USART_DeInit:USARTx <- $r0
	.loc	4 129 3                         @ ../Drivers/STM32F4xx_HAL_Driver/Src/stm32f4xx_ll_usart.c:129:3
	movw	r0, :lower16:.L.str
.Ltmp45:
	@DEBUG_VALUE: LL_USART_DeInit:USARTx <- [DW_OP_LLVM_entry_value 1] $r0
	movt	r0, :upper16:.L.str
	movs	r1, #129
	bl	assert_failed
.Ltmp46:
	.loc	4 0 3 is_stmt 0                 @ ../Drivers/STM32F4xx_HAL_Driver/Src/stm32f4xx_ll_usart.c:0:3
	movs	r0, #1
.Ltmp47:
	@DEBUG_VALUE: LL_USART_DeInit:status <- $r0
	.loc	4 232 3 is_stmt 1               @ ../Drivers/STM32F4xx_HAL_Driver/Src/stm32f4xx_ll_usart.c:232:3
	pop	{r7, pc}
.Ltmp48:
.Lfunc_end0:
	.size	LL_USART_DeInit, .Lfunc_end0-LL_USART_DeInit
	.cfi_endproc
	.cantunwind
	.fnend
                                        @ -- End function
	.section	.text.LL_USART_Init,"ax",%progbits
	.hidden	LL_USART_Init                   @ -- Begin function LL_USART_Init
	.globl	LL_USART_Init
	.p2align	2
	.type	LL_USART_Init,%function
	.code	16                              @ @LL_USART_Init
	.thumb_func
LL_USART_Init:
.Lfunc_begin1:
	.loc	4 249 0                         @ ../Drivers/STM32F4xx_HAL_Driver/Src/stm32f4xx_ll_usart.c:249:0
	.fnstart
	.cfi_startproc
@ %bb.0:
	@DEBUG_VALUE: LL_USART_Init:USARTx <- $r0
	@DEBUG_VALUE: LL_USART_Init:USART_InitStruct <- $r1
	.save	{r4, r5, r6, r7, r8, lr}
	push.w	{r4, r5, r6, r7, r8, lr}
	.cfi_def_cfa_offset 24
	.cfi_offset lr, -4
	.cfi_offset r8, -8
	.cfi_offset r7, -12
	.cfi_offset r6, -16
	.cfi_offset r5, -20
	.cfi_offset r4, -24
	.pad	#16
	sub	sp, #16
	.cfi_def_cfa_offset 40
	movw	r8, #20479
	movt	r8, #16384
	mov	r4, r0
.Ltmp49:
	@DEBUG_VALUE: LL_USART_Init:periphclk <- 0
	@DEBUG_VALUE: LL_USART_Init:status <- 1
	@DEBUG_VALUE: LL_USART_Init:USARTx <- $r4
	.loc	4 255 3 prologue_end            @ ../Drivers/STM32F4xx_HAL_Driver/Src/stm32f4xx_ll_usart.c:255:3
	cmp	r0, r8
	mov	r5, r1
.Ltmp50:
	@DEBUG_VALUE: LL_USART_Init:USART_InitStruct <- $r5
	@DEBUG_VALUE: LL_USART_Init:USART_InitStruct <- $r5
	bgt	.LBB1_4
.Ltmp51:
@ %bb.1:
	@DEBUG_VALUE: LL_USART_Init:USART_InitStruct <- $r5
	@DEBUG_VALUE: LL_USART_Init:USARTx <- $r4
	@DEBUG_VALUE: LL_USART_Init:status <- 1
	@DEBUG_VALUE: LL_USART_Init:periphclk <- 0
	.loc	4 0 3 is_stmt 0                 @ ../Drivers/STM32F4xx_HAL_Driver/Src/stm32f4xx_ll_usart.c:0:3
	movw	r0, #17408
	movt	r0, #16384
	.loc	4 255 3                         @ ../Drivers/STM32F4xx_HAL_Driver/Src/stm32f4xx_ll_usart.c:255:3
	cmp	r4, r0
	beq	.LBB1_8
.Ltmp52:
@ %bb.2:
	@DEBUG_VALUE: LL_USART_Init:USART_InitStruct <- $r5
	@DEBUG_VALUE: LL_USART_Init:USARTx <- $r4
	@DEBUG_VALUE: LL_USART_Init:status <- 1
	@DEBUG_VALUE: LL_USART_Init:periphclk <- 0
	.loc	4 0 3                           @ ../Drivers/STM32F4xx_HAL_Driver/Src/stm32f4xx_ll_usart.c:0:3
	movw	r0, #18432
	movt	r0, #16384
	.loc	4 255 3                         @ ../Drivers/STM32F4xx_HAL_Driver/Src/stm32f4xx_ll_usart.c:255:3
	cmp	r4, r0
	beq	.LBB1_8
.Ltmp53:
@ %bb.3:
	@DEBUG_VALUE: LL_USART_Init:USART_InitStruct <- $r5
	@DEBUG_VALUE: LL_USART_Init:USARTx <- $r4
	@DEBUG_VALUE: LL_USART_Init:status <- 1
	@DEBUG_VALUE: LL_USART_Init:periphclk <- 0
	.loc	4 0 3                           @ ../Drivers/STM32F4xx_HAL_Driver/Src/stm32f4xx_ll_usart.c:0:3
	movw	r0, #19456
	movt	r0, #16384
	.loc	4 255 3                         @ ../Drivers/STM32F4xx_HAL_Driver/Src/stm32f4xx_ll_usart.c:255:3
	cmp	r4, r0
	beq	.LBB1_8
	b	.LBB1_7
.Ltmp54:
	.p2align	2
.LBB1_4:
	@DEBUG_VALUE: LL_USART_Init:USART_InitStruct <- $r5
	@DEBUG_VALUE: LL_USART_Init:USARTx <- $r4
	@DEBUG_VALUE: LL_USART_Init:status <- 1
	@DEBUG_VALUE: LL_USART_Init:periphclk <- 0
	.loc	4 0 3                           @ ../Drivers/STM32F4xx_HAL_Driver/Src/stm32f4xx_ll_usart.c:0:3
	movw	r0, #20480
	movt	r0, #16384
	.loc	4 255 3                         @ ../Drivers/STM32F4xx_HAL_Driver/Src/stm32f4xx_ll_usart.c:255:3
	cmp	r4, r0
	beq	.LBB1_8
.Ltmp55:
@ %bb.5:
	@DEBUG_VALUE: LL_USART_Init:USART_InitStruct <- $r5
	@DEBUG_VALUE: LL_USART_Init:USARTx <- $r4
	@DEBUG_VALUE: LL_USART_Init:status <- 1
	@DEBUG_VALUE: LL_USART_Init:periphclk <- 0
	.loc	4 0 3                           @ ../Drivers/STM32F4xx_HAL_Driver/Src/stm32f4xx_ll_usart.c:0:3
	movw	r0, #4096
	movt	r0, #16385
	.loc	4 255 3                         @ ../Drivers/STM32F4xx_HAL_Driver/Src/stm32f4xx_ll_usart.c:255:3
	cmp	r4, r0
	beq	.LBB1_8
.Ltmp56:
@ %bb.6:
	@DEBUG_VALUE: LL_USART_Init:USART_InitStruct <- $r5
	@DEBUG_VALUE: LL_USART_Init:USARTx <- $r4
	@DEBUG_VALUE: LL_USART_Init:status <- 1
	@DEBUG_VALUE: LL_USART_Init:periphclk <- 0
	.loc	4 0 3                           @ ../Drivers/STM32F4xx_HAL_Driver/Src/stm32f4xx_ll_usart.c:0:3
	movw	r0, #5120
	movt	r0, #16385
	.loc	4 255 3                         @ ../Drivers/STM32F4xx_HAL_Driver/Src/stm32f4xx_ll_usart.c:255:3
	cmp	r4, r0
	beq	.LBB1_8
.Ltmp57:
.LBB1_7:
	@DEBUG_VALUE: LL_USART_Init:USART_InitStruct <- $r5
	@DEBUG_VALUE: LL_USART_Init:USARTx <- $r4
	@DEBUG_VALUE: LL_USART_Init:status <- 1
	@DEBUG_VALUE: LL_USART_Init:periphclk <- 0
	movw	r0, :lower16:.L.str
	movt	r0, :upper16:.L.str
	movs	r1, #255
	bl	assert_failed
.Ltmp58:
.LBB1_8:
	@DEBUG_VALUE: LL_USART_Init:USART_InitStruct <- $r5
	@DEBUG_VALUE: LL_USART_Init:USARTx <- $r4
	@DEBUG_VALUE: LL_USART_Init:status <- 1
	@DEBUG_VALUE: LL_USART_Init:periphclk <- 0
	.loc	4 256 3 is_stmt 1               @ ../Drivers/STM32F4xx_HAL_Driver/Src/stm32f4xx_ll_usart.c:256:3
	ldr	r0, [r5]
	movw	r1, #48161
	movt	r1, #190
	cmp	r0, r1
	bhs	.LBB1_17
.Ltmp59:
@ %bb.9:
	@DEBUG_VALUE: LL_USART_Init:USART_InitStruct <- $r5
	@DEBUG_VALUE: LL_USART_Init:USARTx <- $r4
	@DEBUG_VALUE: LL_USART_Init:status <- 1
	@DEBUG_VALUE: LL_USART_Init:periphclk <- 0
	.loc	4 257 3                         @ ../Drivers/STM32F4xx_HAL_Driver/Src/stm32f4xx_ll_usart.c:257:3
	ldr	r0, [r5, #4]
	orr	r0, r0, #4096
	cmp.w	r0, #4096
	bne	.LBB1_18
.Ltmp60:
.LBB1_10:
	@DEBUG_VALUE: LL_USART_Init:USART_InitStruct <- $r5
	@DEBUG_VALUE: LL_USART_Init:USARTx <- $r4
	@DEBUG_VALUE: LL_USART_Init:status <- 1
	@DEBUG_VALUE: LL_USART_Init:periphclk <- 0
	.loc	4 258 3                         @ ../Drivers/STM32F4xx_HAL_Driver/Src/stm32f4xx_ll_usart.c:258:3
	ldr	r0, [r5, #8]
	ror.w	r0, r0, #12
	cmp	r0, #4
	blo	.LBB1_12
.Ltmp61:
.LBB1_11:
	@DEBUG_VALUE: LL_USART_Init:USART_InitStruct <- $r5
	@DEBUG_VALUE: LL_USART_Init:USARTx <- $r4
	@DEBUG_VALUE: LL_USART_Init:status <- 1
	@DEBUG_VALUE: LL_USART_Init:periphclk <- 0
	movw	r0, :lower16:.L.str
	movt	r0, :upper16:.L.str
	mov.w	r1, #258
	bl	assert_failed
.Ltmp62:
.LBB1_12:
	@DEBUG_VALUE: LL_USART_Init:USART_InitStruct <- $r5
	@DEBUG_VALUE: LL_USART_Init:USARTx <- $r4
	@DEBUG_VALUE: LL_USART_Init:status <- 1
	@DEBUG_VALUE: LL_USART_Init:periphclk <- 0
	.loc	4 259 3                         @ ../Drivers/STM32F4xx_HAL_Driver/Src/stm32f4xx_ll_usart.c:259:3
	ldr	r0, [r5, #12]
	cmp	r0, #0
	it	ne
	cmpne.w	r0, #1024
	bne.w	.LBB1_27
.Ltmp63:
.LBB1_13:
	@DEBUG_VALUE: LL_USART_Init:USART_InitStruct <- $r5
	@DEBUG_VALUE: LL_USART_Init:USARTx <- $r4
	@DEBUG_VALUE: LL_USART_Init:status <- 1
	@DEBUG_VALUE: LL_USART_Init:periphclk <- 0
	.loc	4 260 3                         @ ../Drivers/STM32F4xx_HAL_Driver/Src/stm32f4xx_ll_usart.c:260:3
	ldr	r0, [r5, #16]
	ror.w	r0, r0, #2
	cmp	r0, #4
	bhs	.LBB1_19
.Ltmp64:
@ %bb.14:
	@DEBUG_VALUE: LL_USART_Init:USART_InitStruct <- $r5
	@DEBUG_VALUE: LL_USART_Init:USARTx <- $r4
	@DEBUG_VALUE: LL_USART_Init:status <- 1
	@DEBUG_VALUE: LL_USART_Init:periphclk <- 0
	.loc	4 261 3                         @ ../Drivers/STM32F4xx_HAL_Driver/Src/stm32f4xx_ll_usart.c:261:3
	ldr	r0, [r5, #20]
	ror.w	r0, r0, #8
	cmp	r0, #4
	bhs	.LBB1_20
.Ltmp65:
.LBB1_15:
	@DEBUG_VALUE: LL_USART_Init:USART_InitStruct <- $r5
	@DEBUG_VALUE: LL_USART_Init:USARTx <- $r4
	@DEBUG_VALUE: LL_USART_Init:status <- 1
	@DEBUG_VALUE: LL_USART_Init:periphclk <- 0
	.loc	4 262 3                         @ ../Drivers/STM32F4xx_HAL_Driver/Src/stm32f4xx_ll_usart.c:262:3
	ldr	r0, [r5, #24]
	orr	r0, r0, #32768
	cmp.w	r0, #32768
	bne	.LBB1_21
.Ltmp66:
.LBB1_16:
	@DEBUG_VALUE: LL_USART_Init:USART_InitStruct <- $r5
	@DEBUG_VALUE: LL_USART_Init:USARTx <- $r4
	@DEBUG_VALUE: LL_USART_Init:status <- 1
	@DEBUG_VALUE: LL_USART_Init:periphclk <- 0
	@DEBUG_VALUE: LL_USART_IsEnabled:USARTx <- $r4
	.file	6 "f:\\OwnProject\\CubeMX\\stm32f407_ll_usart_dma\\MDK-ARM" "../Drivers/STM32F4xx_HAL_Driver/Inc\\stm32f4xx_ll_usart.h"
	.loc	6 437 11                        @ ../Drivers/STM32F4xx_HAL_Driver/Inc\stm32f4xx_ll_usart.h:437:11
	ldr	r0, [r4, #12]
.Ltmp67:
	.loc	4 266 7                         @ ../Drivers/STM32F4xx_HAL_Driver/Src/stm32f4xx_ll_usart.c:266:7
	lsls	r0, r0, #18
	bmi.w	.LBB1_37
	b	.LBB1_22
.Ltmp68:
	.p2align	2
.LBB1_17:
	@DEBUG_VALUE: LL_USART_Init:USART_InitStruct <- $r5
	@DEBUG_VALUE: LL_USART_Init:USARTx <- $r4
	@DEBUG_VALUE: LL_USART_Init:status <- 1
	@DEBUG_VALUE: LL_USART_Init:periphclk <- 0
	.loc	4 256 3                         @ ../Drivers/STM32F4xx_HAL_Driver/Src/stm32f4xx_ll_usart.c:256:3
	movw	r0, :lower16:.L.str
	movt	r0, :upper16:.L.str
	mov.w	r1, #256
	bl	assert_failed
.Ltmp69:
	.loc	4 257 3                         @ ../Drivers/STM32F4xx_HAL_Driver/Src/stm32f4xx_ll_usart.c:257:3
	ldr	r0, [r5, #4]
	orr	r0, r0, #4096
	cmp.w	r0, #4096
	beq	.LBB1_10
.Ltmp70:
.LBB1_18:
	@DEBUG_VALUE: LL_USART_Init:USART_InitStruct <- $r5
	@DEBUG_VALUE: LL_USART_Init:USARTx <- $r4
	@DEBUG_VALUE: LL_USART_Init:status <- 1
	@DEBUG_VALUE: LL_USART_Init:periphclk <- 0
	movw	r0, :lower16:.L.str
	movt	r0, :upper16:.L.str
	movw	r1, #257
	bl	assert_failed
.Ltmp71:
	.loc	4 258 3                         @ ../Drivers/STM32F4xx_HAL_Driver/Src/stm32f4xx_ll_usart.c:258:3
	ldr	r0, [r5, #8]
	ror.w	r0, r0, #12
	cmp	r0, #4
	bhs	.LBB1_11
	b	.LBB1_12
.Ltmp72:
	.p2align	2
.LBB1_19:
	@DEBUG_VALUE: LL_USART_Init:USART_InitStruct <- $r5
	@DEBUG_VALUE: LL_USART_Init:USARTx <- $r4
	@DEBUG_VALUE: LL_USART_Init:status <- 1
	@DEBUG_VALUE: LL_USART_Init:periphclk <- 0
	.loc	4 260 3                         @ ../Drivers/STM32F4xx_HAL_Driver/Src/stm32f4xx_ll_usart.c:260:3
	movw	r0, :lower16:.L.str
	movt	r0, :upper16:.L.str
	mov.w	r1, #260
	bl	assert_failed
.Ltmp73:
	.loc	4 261 3                         @ ../Drivers/STM32F4xx_HAL_Driver/Src/stm32f4xx_ll_usart.c:261:3
	ldr	r0, [r5, #20]
	ror.w	r0, r0, #8
	cmp	r0, #4
	blo	.LBB1_15
.Ltmp74:
.LBB1_20:
	@DEBUG_VALUE: LL_USART_Init:USART_InitStruct <- $r5
	@DEBUG_VALUE: LL_USART_Init:USARTx <- $r4
	@DEBUG_VALUE: LL_USART_Init:status <- 1
	@DEBUG_VALUE: LL_USART_Init:periphclk <- 0
	movw	r0, :lower16:.L.str
	movt	r0, :upper16:.L.str
	movw	r1, #261
	bl	assert_failed
.Ltmp75:
	.loc	4 262 3                         @ ../Drivers/STM32F4xx_HAL_Driver/Src/stm32f4xx_ll_usart.c:262:3
	ldr	r0, [r5, #24]
	orr	r0, r0, #32768
	cmp.w	r0, #32768
	beq	.LBB1_16
.Ltmp76:
.LBB1_21:
	@DEBUG_VALUE: LL_USART_Init:USART_InitStruct <- $r5
	@DEBUG_VALUE: LL_USART_Init:USARTx <- $r4
	@DEBUG_VALUE: LL_USART_Init:status <- 1
	@DEBUG_VALUE: LL_USART_Init:periphclk <- 0
	movw	r0, :lower16:.L.str
	movt	r0, :upper16:.L.str
	mov.w	r1, #262
	bl	assert_failed
.Ltmp77:
	@DEBUG_VALUE: LL_USART_IsEnabled:USARTx <- $r4
	.loc	6 437 11                        @ ../Drivers/STM32F4xx_HAL_Driver/Inc\stm32f4xx_ll_usart.h:437:11
	ldr	r0, [r4, #12]
.Ltmp78:
	.loc	4 266 7                         @ ../Drivers/STM32F4xx_HAL_Driver/Src/stm32f4xx_ll_usart.c:266:7
	lsls	r0, r0, #18
	bmi.w	.LBB1_37
.Ltmp79:
.LBB1_22:
	@DEBUG_VALUE: LL_USART_Init:USART_InitStruct <- $r5
	@DEBUG_VALUE: LL_USART_Init:USARTx <- $r4
	@DEBUG_VALUE: LL_USART_Init:status <- 1
	@DEBUG_VALUE: LL_USART_Init:periphclk <- 0
	.loc	4 275 5                         @ ../Drivers/STM32F4xx_HAL_Driver/Src/stm32f4xx_ll_usart.c:275:5
	ldr	r0, [r4, #12]
	movw	r1, #38412
	add.w	r12, r5, #4
	bics	r0, r1
.Ltmp80:
	@DEBUG_VALUE: LL_USART_SetHWFlowCtrl:HardwareFlowControl <- undef
	@DEBUG_VALUE: LL_USART_SetStopBitsLength:StopBits <- undef
	ldm.w	r12, {r1, r2, r3, r6, r12}
	ldr	r7, [r5, #24]
	orrs	r0, r1
	orrs	r0, r3
	orrs	r0, r6
	orrs	r0, r7
	str	r0, [r4, #12]
.Ltmp81:
	@DEBUG_VALUE: LL_USART_SetStopBitsLength:USARTx <- $r4
	.loc	6 807 3                         @ ../Drivers/STM32F4xx_HAL_Driver/Inc\stm32f4xx_ll_usart.h:807:3
	ldr	r0, [r4, #16]
	mov	r6, sp
	bic	r0, r0, #12288
	orrs	r0, r2
	str	r0, [r4, #16]
.Ltmp82:
	@DEBUG_VALUE: LL_USART_SetHWFlowCtrl:USARTx <- $r4
	.loc	6 951 3                         @ ../Drivers/STM32F4xx_HAL_Driver/Inc\stm32f4xx_ll_usart.h:951:3
	ldr	r0, [r4, #20]
	bic	r0, r0, #768
	orr.w	r0, r0, r12
	str	r0, [r4, #20]
.Ltmp83:
	.loc	4 297 5                         @ ../Drivers/STM32F4xx_HAL_Driver/Src/stm32f4xx_ll_usart.c:297:5
	mov	r0, r6
	bl	LL_RCC_GetSystemClocksFreq
.Ltmp84:
	.loc	4 298 9                         @ ../Drivers/STM32F4xx_HAL_Driver/Src/stm32f4xx_ll_usart.c:298:9
	cmp	r4, r8
	mov.w	r0, #1
	bgt	.LBB1_29
.Ltmp85:
@ %bb.23:
	@DEBUG_VALUE: LL_USART_Init:USART_InitStruct <- $r5
	@DEBUG_VALUE: LL_USART_Init:USARTx <- $r4
	@DEBUG_VALUE: LL_USART_Init:status <- 1
	@DEBUG_VALUE: LL_USART_Init:periphclk <- 0
	.loc	4 0 9 is_stmt 0                 @ ../Drivers/STM32F4xx_HAL_Driver/Src/stm32f4xx_ll_usart.c:0:9
	movw	r1, #17408
	movt	r1, #16384
	.loc	4 298 9                         @ ../Drivers/STM32F4xx_HAL_Driver/Src/stm32f4xx_ll_usart.c:298:9
	cmp	r4, r1
	beq	.LBB1_33
.Ltmp86:
@ %bb.24:
	@DEBUG_VALUE: LL_USART_Init:USART_InitStruct <- $r5
	@DEBUG_VALUE: LL_USART_Init:USARTx <- $r4
	@DEBUG_VALUE: LL_USART_Init:status <- 1
	@DEBUG_VALUE: LL_USART_Init:periphclk <- 0
	.loc	4 0 9                           @ ../Drivers/STM32F4xx_HAL_Driver/Src/stm32f4xx_ll_usart.c:0:9
	movw	r1, #18432
	movt	r1, #16384
	.loc	4 298 9                         @ ../Drivers/STM32F4xx_HAL_Driver/Src/stm32f4xx_ll_usart.c:298:9
	cmp	r4, r1
	beq	.LBB1_33
.Ltmp87:
@ %bb.25:
	@DEBUG_VALUE: LL_USART_Init:USART_InitStruct <- $r5
	@DEBUG_VALUE: LL_USART_Init:USARTx <- $r4
	@DEBUG_VALUE: LL_USART_Init:status <- 1
	@DEBUG_VALUE: LL_USART_Init:periphclk <- 0
	.loc	4 0 9                           @ ../Drivers/STM32F4xx_HAL_Driver/Src/stm32f4xx_ll_usart.c:0:9
	movw	r1, #19456
	movt	r1, #16384
	.loc	4 298 9                         @ ../Drivers/STM32F4xx_HAL_Driver/Src/stm32f4xx_ll_usart.c:298:9
	cmp	r4, r1
	beq	.LBB1_33
.Ltmp88:
.LBB1_26:
	@DEBUG_VALUE: LL_USART_Init:USART_InitStruct <- $r5
	@DEBUG_VALUE: LL_USART_Init:USARTx <- $r4
	@DEBUG_VALUE: LL_USART_Init:status <- 1
	@DEBUG_VALUE: LL_USART_Init:periphclk <- 0
	@DEBUG_VALUE: LL_USART_Init:status <- $r0
	.loc	4 378 3 is_stmt 1               @ ../Drivers/STM32F4xx_HAL_Driver/Src/stm32f4xx_ll_usart.c:378:3
	add	sp, #16
	pop.w	{r4, r5, r6, r7, r8, pc}
.Ltmp89:
	.p2align	2
.LBB1_27:
	@DEBUG_VALUE: LL_USART_Init:USART_InitStruct <- $r5
	@DEBUG_VALUE: LL_USART_Init:USARTx <- $r4
	@DEBUG_VALUE: LL_USART_Init:status <- 1
	@DEBUG_VALUE: LL_USART_Init:periphclk <- 0
	.loc	4 259 3                         @ ../Drivers/STM32F4xx_HAL_Driver/Src/stm32f4xx_ll_usart.c:259:3
	cmp.w	r0, #1536
	beq.w	.LBB1_13
.Ltmp90:
@ %bb.28:
	@DEBUG_VALUE: LL_USART_Init:USART_InitStruct <- $r5
	@DEBUG_VALUE: LL_USART_Init:USARTx <- $r4
	@DEBUG_VALUE: LL_USART_Init:status <- 1
	@DEBUG_VALUE: LL_USART_Init:periphclk <- 0
	movw	r0, :lower16:.L.str
	movt	r0, :upper16:.L.str
	movw	r1, #259
	bl	assert_failed
.Ltmp91:
	.loc	4 0 3 is_stmt 0                 @ ../Drivers/STM32F4xx_HAL_Driver/Src/stm32f4xx_ll_usart.c:0:3
	b	.LBB1_13
.Ltmp92:
	.p2align	2
.LBB1_29:
	@DEBUG_VALUE: LL_USART_Init:USART_InitStruct <- $r5
	@DEBUG_VALUE: LL_USART_Init:USARTx <- $r4
	@DEBUG_VALUE: LL_USART_Init:status <- 1
	@DEBUG_VALUE: LL_USART_Init:periphclk <- 0
	movw	r1, #20480
	movt	r1, #16384
.Ltmp93:
	.loc	4 298 9 is_stmt 1               @ ../Drivers/STM32F4xx_HAL_Driver/Src/stm32f4xx_ll_usart.c:298:9
	cmp	r4, r1
	beq	.LBB1_33
.Ltmp94:
@ %bb.30:
	@DEBUG_VALUE: LL_USART_Init:USART_InitStruct <- $r5
	@DEBUG_VALUE: LL_USART_Init:USARTx <- $r4
	@DEBUG_VALUE: LL_USART_Init:status <- 1
	@DEBUG_VALUE: LL_USART_Init:periphclk <- 0
	.loc	4 0 9 is_stmt 0                 @ ../Drivers/STM32F4xx_HAL_Driver/Src/stm32f4xx_ll_usart.c:0:9
	movw	r1, #5120
	movt	r1, #16385
	.loc	4 298 9                         @ ../Drivers/STM32F4xx_HAL_Driver/Src/stm32f4xx_ll_usart.c:298:9
	cmp	r4, r1
	beq	.LBB1_32
.Ltmp95:
@ %bb.31:
	@DEBUG_VALUE: LL_USART_Init:USART_InitStruct <- $r5
	@DEBUG_VALUE: LL_USART_Init:USARTx <- $r4
	@DEBUG_VALUE: LL_USART_Init:status <- 1
	@DEBUG_VALUE: LL_USART_Init:periphclk <- 0
	.loc	4 0 9                           @ ../Drivers/STM32F4xx_HAL_Driver/Src/stm32f4xx_ll_usart.c:0:9
	movw	r1, #4096
	movt	r1, #16385
	.loc	4 298 9                         @ ../Drivers/STM32F4xx_HAL_Driver/Src/stm32f4xx_ll_usart.c:298:9
	cmp	r4, r1
	bne	.LBB1_26
.Ltmp96:
.LBB1_32:
	@DEBUG_VALUE: LL_USART_Init:USART_InitStruct <- $r5
	@DEBUG_VALUE: LL_USART_Init:USARTx <- $r4
	@DEBUG_VALUE: LL_USART_Init:status <- 1
	@DEBUG_VALUE: LL_USART_Init:periphclk <- 0
	.loc	4 0 0                           @ ../Drivers/STM32F4xx_HAL_Driver/Src/stm32f4xx_ll_usart.c:0:0
	add.w	r0, r6, #12
.Ltmp97:
	@DEBUG_VALUE: LL_USART_Init:periphclk <- undef
	ldr	r0, [r0]
.Ltmp98:
	@DEBUG_VALUE: LL_USART_Init:periphclk <- $r0
	cbnz	r0, .LBB1_34
	b	.LBB1_37
.Ltmp99:
	.p2align	2
.LBB1_33:
	@DEBUG_VALUE: LL_USART_Init:USART_InitStruct <- $r5
	@DEBUG_VALUE: LL_USART_Init:USARTx <- $r4
	@DEBUG_VALUE: LL_USART_Init:status <- 1
	@DEBUG_VALUE: LL_USART_Init:periphclk <- 0
	add.w	r0, r6, #8
.Ltmp100:
	@DEBUG_VALUE: LL_USART_Init:periphclk <- undef
	ldr	r0, [r0]
.Ltmp101:
	@DEBUG_VALUE: LL_USART_Init:periphclk <- $r0
	.loc	4 364 9 is_stmt 1               @ ../Drivers/STM32F4xx_HAL_Driver/Src/stm32f4xx_ll_usart.c:364:9
	cbz	r0, .LBB1_37
.Ltmp102:
.LBB1_34:
	@DEBUG_VALUE: LL_USART_Init:periphclk <- $r0
	@DEBUG_VALUE: LL_USART_Init:USART_InitStruct <- $r5
	@DEBUG_VALUE: LL_USART_Init:USARTx <- $r4
	@DEBUG_VALUE: LL_USART_Init:status <- 1
	.loc	4 364 31 is_stmt 0              @ ../Drivers/STM32F4xx_HAL_Driver/Src/stm32f4xx_ll_usart.c:364:31
	ldr	r3, [r5]
.Ltmp103:
	.loc	4 363 9 is_stmt 1               @ ../Drivers/STM32F4xx_HAL_Driver/Src/stm32f4xx_ll_usart.c:363:9
	cbz	r3, .LBB1_37
.Ltmp104:
@ %bb.35:
	@DEBUG_VALUE: LL_USART_Init:periphclk <- $r0
	@DEBUG_VALUE: LL_USART_Init:USART_InitStruct <- $r5
	@DEBUG_VALUE: LL_USART_Init:USARTx <- $r4
	@DEBUG_VALUE: LL_USART_Init:status <- 1
	@DEBUG_VALUE: LL_USART_Init:status <- 0
	.loc	4 369 46                        @ ../Drivers/STM32F4xx_HAL_Driver/Src/stm32f4xx_ll_usart.c:369:46
	ldr	r1, [r5, #24]
	movs	r2, #25
.Ltmp105:
	@DEBUG_VALUE: LL_USART_SetBaudRate:BaudRate <- $r3
	@DEBUG_VALUE: LL_USART_SetBaudRate:PeriphClk <- $r0
	@DEBUG_VALUE: LL_USART_SetBaudRate:USARTx <- $r4
	@DEBUG_VALUE: LL_USART_SetBaudRate:OverSampling <- $r1
	.loc	6 1023 7                        @ ../Drivers/STM32F4xx_HAL_Driver/Inc\stm32f4xx_ll_usart.h:1023:7
	cmp.w	r1, #32768
.Ltmp106:
	.loc	6 0 0 is_stmt 0                 @ ../Drivers/STM32F4xx_HAL_Driver/Inc\stm32f4xx_ll_usart.h:0:0
	umull	r0, r1, r0, r2
.Ltmp107:
	.loc	6 1023 7                        @ ../Drivers/STM32F4xx_HAL_Driver/Inc\stm32f4xx_ll_usart.h:1023:7
	bne	.LBB1_38
.Ltmp108:
@ %bb.36:
	@DEBUG_VALUE: LL_USART_SetBaudRate:USARTx <- $r4
	@DEBUG_VALUE: LL_USART_SetBaudRate:BaudRate <- $r3
	@DEBUG_VALUE: LL_USART_Init:status <- 0
	@DEBUG_VALUE: LL_USART_Init:USART_InitStruct <- $r5
	@DEBUG_VALUE: LL_USART_Init:USARTx <- $r4
	.loc	6 1025 30 is_stmt 1             @ ../Drivers/STM32F4xx_HAL_Driver/Inc\stm32f4xx_ll_usart.h:1025:30
	lsls	r2, r3, #1
	lsrs	r3, r3, #31
.Ltmp109:
	bl	__aeabi_uldivmod
.Ltmp110:
	.loc	6 0 30 is_stmt 0                @ ../Drivers/STM32F4xx_HAL_Driver/Inc\stm32f4xx_ll_usart.h:0:30
	movw	r1, #34079
	movt	r1, #20971
	.loc	6 1025 30                       @ ../Drivers/STM32F4xx_HAL_Driver/Inc\stm32f4xx_ll_usart.h:1025:30
	umull	r2, r3, r0, r1
	lsrs	r2, r3, #5
	mvn	r3, #99
	mla	r0, r2, r3, r0
	movs	r3, #50
	add.w	r0, r3, r0, lsl #3
	umull	r0, r1, r0, r1
	mov.w	r0, #496
	and.w	r0, r0, r1, lsr #4
	add.w	r0, r0, r2, lsl #4
	ubfx	r1, r1, #5, #3
	b	.LBB1_39
.Ltmp111:
	.p2align	2
.LBB1_37:
	@DEBUG_VALUE: LL_USART_Init:USART_InitStruct <- $r5
	@DEBUG_VALUE: LL_USART_Init:USARTx <- $r4
	@DEBUG_VALUE: LL_USART_Init:status <- 1
	.loc	6 0 30                          @ ../Drivers/STM32F4xx_HAL_Driver/Inc\stm32f4xx_ll_usart.h:0:30
	movs	r0, #1
.Ltmp112:
	@DEBUG_VALUE: LL_USART_Init:status <- $r0
	.loc	4 378 3 is_stmt 1               @ ../Drivers/STM32F4xx_HAL_Driver/Src/stm32f4xx_ll_usart.c:378:3
	add	sp, #16
	pop.w	{r4, r5, r6, r7, r8, pc}
.Ltmp113:
	.p2align	2
.LBB1_38:
	@DEBUG_VALUE: LL_USART_SetBaudRate:USARTx <- $r4
	@DEBUG_VALUE: LL_USART_SetBaudRate:BaudRate <- $r3
	@DEBUG_VALUE: LL_USART_Init:status <- 0
	@DEBUG_VALUE: LL_USART_Init:USART_InitStruct <- $r5
	@DEBUG_VALUE: LL_USART_Init:USARTx <- $r4
	.loc	6 1029 30                       @ ../Drivers/STM32F4xx_HAL_Driver/Inc\stm32f4xx_ll_usart.h:1029:30
	lsls	r2, r3, #2
	lsrs	r3, r3, #30
.Ltmp114:
	bl	__aeabi_uldivmod
.Ltmp115:
	.loc	6 0 30 is_stmt 0                @ ../Drivers/STM32F4xx_HAL_Driver/Inc\stm32f4xx_ll_usart.h:0:30
	movw	r1, #34079
	movt	r1, #20971
	.loc	6 1029 30                       @ ../Drivers/STM32F4xx_HAL_Driver/Inc\stm32f4xx_ll_usart.h:1029:30
	umull	r2, r3, r0, r1
	lsrs	r2, r3, #5
	mvn	r3, #99
	mla	r0, r2, r3, r0
	movs	r3, #50
	add.w	r0, r3, r0, lsl #4
	umull	r0, r1, r0, r1
	movs	r0, #240
	and.w	r0, r0, r1, lsr #5
	add.w	r0, r0, r2, lsl #4
	ubfx	r1, r1, #5, #4
.Ltmp116:
.LBB1_39:
	@DEBUG_VALUE: LL_USART_SetBaudRate:USARTx <- $r4
	@DEBUG_VALUE: LL_USART_Init:status <- 0
	@DEBUG_VALUE: LL_USART_Init:USART_InitStruct <- $r5
	@DEBUG_VALUE: LL_USART_Init:USARTx <- $r4
	.loc	6 0 30                          @ ../Drivers/STM32F4xx_HAL_Driver/Inc\stm32f4xx_ll_usart.h:0:30
	movw	r2, #65520
	ands	r0, r2
	add	r0, r1
	str	r0, [r4, #8]
.Ltmp117:
	.loc	4 373 7 is_stmt 1               @ ../Drivers/STM32F4xx_HAL_Driver/Src/stm32f4xx_ll_usart.c:373:7
	ldr	r0, [r4, #8]
	cmp	r0, #15
	bls	.LBB1_41
.Ltmp118:
@ %bb.40:
	@DEBUG_VALUE: LL_USART_Init:status <- 0
	@DEBUG_VALUE: LL_USART_Init:USART_InitStruct <- $r5
	@DEBUG_VALUE: LL_USART_Init:USARTx <- $r4
	.loc	4 0 7 is_stmt 0                 @ ../Drivers/STM32F4xx_HAL_Driver/Src/stm32f4xx_ll_usart.c:0:7
	movs	r0, #0
.Ltmp119:
	@DEBUG_VALUE: LL_USART_Init:status <- $r0
	.loc	4 378 3 is_stmt 1               @ ../Drivers/STM32F4xx_HAL_Driver/Src/stm32f4xx_ll_usart.c:378:3
	add	sp, #16
	pop.w	{r4, r5, r6, r7, r8, pc}
.Ltmp120:
	.p2align	2
.LBB1_41:
	@DEBUG_VALUE: LL_USART_Init:status <- 0
	@DEBUG_VALUE: LL_USART_Init:USART_InitStruct <- $r5
	@DEBUG_VALUE: LL_USART_Init:USARTx <- $r4
	.loc	4 373 7                         @ ../Drivers/STM32F4xx_HAL_Driver/Src/stm32f4xx_ll_usart.c:373:7
	movw	r0, :lower16:.L.str
	movt	r0, :upper16:.L.str
	movw	r1, #373
	bl	assert_failed
.Ltmp121:
	.loc	4 0 7 is_stmt 0                 @ ../Drivers/STM32F4xx_HAL_Driver/Src/stm32f4xx_ll_usart.c:0:7
	movs	r0, #0
.Ltmp122:
	@DEBUG_VALUE: LL_USART_Init:status <- $r0
	.loc	4 378 3 is_stmt 1               @ ../Drivers/STM32F4xx_HAL_Driver/Src/stm32f4xx_ll_usart.c:378:3
	add	sp, #16
	pop.w	{r4, r5, r6, r7, r8, pc}
.Ltmp123:
.Lfunc_end1:
	.size	LL_USART_Init, .Lfunc_end1-LL_USART_Init
	.cfi_endproc
	.cantunwind
	.fnend
                                        @ -- End function
	.section	.text.LL_USART_StructInit,"ax",%progbits
	.hidden	LL_USART_StructInit             @ -- Begin function LL_USART_StructInit
	.globl	LL_USART_StructInit
	.p2align	2
	.type	LL_USART_StructInit,%function
	.code	16                              @ @LL_USART_StructInit
	.thumb_func
LL_USART_StructInit:
.Lfunc_begin2:
	.loc	4 389 0                         @ ../Drivers/STM32F4xx_HAL_Driver/Src/stm32f4xx_ll_usart.c:389:0
	.fnstart
	.cfi_startproc
@ %bb.0:
	@DEBUG_VALUE: LL_USART_StructInit:USART_InitStruct <- $r0
	mov.w	r1, #9600
	movs	r2, #0
	movs	r3, #12
.Ltmp124:
	.loc	4 391 41 prologue_end           @ ../Drivers/STM32F4xx_HAL_Driver/Src/stm32f4xx_ll_usart.c:391:41
	strd	r1, r2, [r0]
	.loc	4 393 41                        @ ../Drivers/STM32F4xx_HAL_Driver/Src/stm32f4xx_ll_usart.c:393:41
	strd	r2, r2, [r0, #8]
	.loc	4 395 41                        @ ../Drivers/STM32F4xx_HAL_Driver/Src/stm32f4xx_ll_usart.c:395:41
	strd	r3, r2, [r0, #16]
	.loc	4 397 41                        @ ../Drivers/STM32F4xx_HAL_Driver/Src/stm32f4xx_ll_usart.c:397:41
	str	r2, [r0, #24]
	.loc	4 398 1                         @ ../Drivers/STM32F4xx_HAL_Driver/Src/stm32f4xx_ll_usart.c:398:1
	bx	lr
.Ltmp125:
.Lfunc_end2:
	.size	LL_USART_StructInit, .Lfunc_end2-LL_USART_StructInit
	.cfi_endproc
	.cantunwind
	.fnend
                                        @ -- End function
	.section	.text.LL_USART_ClockInit,"ax",%progbits
	.hidden	LL_USART_ClockInit              @ -- Begin function LL_USART_ClockInit
	.globl	LL_USART_ClockInit
	.p2align	2
	.type	LL_USART_ClockInit,%function
	.code	16                              @ @LL_USART_ClockInit
	.thumb_func
LL_USART_ClockInit:
.Lfunc_begin3:
	.loc	4 413 0                         @ ../Drivers/STM32F4xx_HAL_Driver/Src/stm32f4xx_ll_usart.c:413:0
	.fnstart
	.cfi_startproc
@ %bb.0:
	@DEBUG_VALUE: LL_USART_ClockInit:USARTx <- $r0
	@DEBUG_VALUE: LL_USART_ClockInit:USART_ClockInitStruct <- $r1
	.save	{r4, r5, r7, lr}
	push	{r4, r5, r7, lr}
	.cfi_def_cfa_offset 16
	.cfi_offset lr, -4
	.cfi_offset r7, -8
	.cfi_offset r5, -12
	.cfi_offset r4, -16
	mov	r4, r0
.Ltmp126:
	@DEBUG_VALUE: LL_USART_ClockInit:USARTx <- $r4
	@DEBUG_VALUE: LL_USART_ClockInit:status <- 0
	@DEBUG_VALUE: LL_USART_ClockInit:USARTx <- $r4
	movw	r0, #20479
	movt	r0, #16384
.Ltmp127:
	.loc	4 417 3 prologue_end            @ ../Drivers/STM32F4xx_HAL_Driver/Src/stm32f4xx_ll_usart.c:417:3
	cmp	r4, r0
	mov	r5, r1
.Ltmp128:
	@DEBUG_VALUE: LL_USART_ClockInit:USART_ClockInitStruct <- $r5
	@DEBUG_VALUE: LL_USART_ClockInit:USART_ClockInitStruct <- $r5
	bgt	.LBB3_4
.Ltmp129:
@ %bb.1:
	@DEBUG_VALUE: LL_USART_ClockInit:USART_ClockInitStruct <- $r5
	@DEBUG_VALUE: LL_USART_ClockInit:status <- 0
	@DEBUG_VALUE: LL_USART_ClockInit:USARTx <- $r4
	.loc	4 0 3 is_stmt 0                 @ ../Drivers/STM32F4xx_HAL_Driver/Src/stm32f4xx_ll_usart.c:0:3
	movw	r0, #17408
	movt	r0, #16384
	.loc	4 417 3                         @ ../Drivers/STM32F4xx_HAL_Driver/Src/stm32f4xx_ll_usart.c:417:3
	cmp	r4, r0
	beq	.LBB3_8
.Ltmp130:
@ %bb.2:
	@DEBUG_VALUE: LL_USART_ClockInit:USART_ClockInitStruct <- $r5
	@DEBUG_VALUE: LL_USART_ClockInit:status <- 0
	@DEBUG_VALUE: LL_USART_ClockInit:USARTx <- $r4
	.loc	4 0 3                           @ ../Drivers/STM32F4xx_HAL_Driver/Src/stm32f4xx_ll_usart.c:0:3
	movw	r0, #18432
	movt	r0, #16384
	.loc	4 417 3                         @ ../Drivers/STM32F4xx_HAL_Driver/Src/stm32f4xx_ll_usart.c:417:3
	cmp	r4, r0
	beq	.LBB3_8
.Ltmp131:
@ %bb.3:
	@DEBUG_VALUE: LL_USART_ClockInit:USART_ClockInitStruct <- $r5
	@DEBUG_VALUE: LL_USART_ClockInit:status <- 0
	@DEBUG_VALUE: LL_USART_ClockInit:USARTx <- $r4
	.loc	4 0 3                           @ ../Drivers/STM32F4xx_HAL_Driver/Src/stm32f4xx_ll_usart.c:0:3
	movw	r0, #19456
	movt	r0, #16384
	.loc	4 417 3                         @ ../Drivers/STM32F4xx_HAL_Driver/Src/stm32f4xx_ll_usart.c:417:3
	cmp	r4, r0
	beq	.LBB3_8
	b	.LBB3_7
.Ltmp132:
	.p2align	2
.LBB3_4:
	@DEBUG_VALUE: LL_USART_ClockInit:USART_ClockInitStruct <- $r5
	@DEBUG_VALUE: LL_USART_ClockInit:status <- 0
	@DEBUG_VALUE: LL_USART_ClockInit:USARTx <- $r4
	.loc	4 0 3                           @ ../Drivers/STM32F4xx_HAL_Driver/Src/stm32f4xx_ll_usart.c:0:3
	movw	r0, #20480
	movt	r0, #16384
	.loc	4 417 3                         @ ../Drivers/STM32F4xx_HAL_Driver/Src/stm32f4xx_ll_usart.c:417:3
	cmp	r4, r0
	beq	.LBB3_8
.Ltmp133:
@ %bb.5:
	@DEBUG_VALUE: LL_USART_ClockInit:USART_ClockInitStruct <- $r5
	@DEBUG_VALUE: LL_USART_ClockInit:status <- 0
	@DEBUG_VALUE: LL_USART_ClockInit:USARTx <- $r4
	.loc	4 0 3                           @ ../Drivers/STM32F4xx_HAL_Driver/Src/stm32f4xx_ll_usart.c:0:3
	movw	r0, #4096
	movt	r0, #16385
	.loc	4 417 3                         @ ../Drivers/STM32F4xx_HAL_Driver/Src/stm32f4xx_ll_usart.c:417:3
	cmp	r4, r0
	beq	.LBB3_8
.Ltmp134:
@ %bb.6:
	@DEBUG_VALUE: LL_USART_ClockInit:USART_ClockInitStruct <- $r5
	@DEBUG_VALUE: LL_USART_ClockInit:status <- 0
	@DEBUG_VALUE: LL_USART_ClockInit:USARTx <- $r4
	.loc	4 0 3                           @ ../Drivers/STM32F4xx_HAL_Driver/Src/stm32f4xx_ll_usart.c:0:3
	movw	r0, #5120
	movt	r0, #16385
	.loc	4 417 3                         @ ../Drivers/STM32F4xx_HAL_Driver/Src/stm32f4xx_ll_usart.c:417:3
	cmp	r4, r0
	beq	.LBB3_8
.Ltmp135:
.LBB3_7:
	@DEBUG_VALUE: LL_USART_ClockInit:USART_ClockInitStruct <- $r5
	@DEBUG_VALUE: LL_USART_ClockInit:status <- 0
	@DEBUG_VALUE: LL_USART_ClockInit:USARTx <- $r4
	movw	r0, :lower16:.L.str
	movt	r0, :upper16:.L.str
	movw	r1, #417
	bl	assert_failed
.Ltmp136:
.LBB3_8:
	@DEBUG_VALUE: LL_USART_ClockInit:USART_ClockInitStruct <- $r5
	@DEBUG_VALUE: LL_USART_ClockInit:status <- 0
	@DEBUG_VALUE: LL_USART_ClockInit:USARTx <- $r4
	.loc	4 418 3 is_stmt 1               @ ../Drivers/STM32F4xx_HAL_Driver/Src/stm32f4xx_ll_usart.c:418:3
	ldr	r0, [r5]
	orr	r0, r0, #2048
	cmp.w	r0, #2048
	beq	.LBB3_10
.Ltmp137:
@ %bb.9:
	@DEBUG_VALUE: LL_USART_ClockInit:USART_ClockInitStruct <- $r5
	@DEBUG_VALUE: LL_USART_ClockInit:status <- 0
	@DEBUG_VALUE: LL_USART_ClockInit:USARTx <- $r4
	movw	r0, :lower16:.L.str
	movt	r0, :upper16:.L.str
	mov.w	r1, #418
	bl	assert_failed
.Ltmp138:
.LBB3_10:
	@DEBUG_VALUE: LL_USART_ClockInit:USART_ClockInitStruct <- $r5
	@DEBUG_VALUE: LL_USART_ClockInit:status <- 0
	@DEBUG_VALUE: LL_USART_ClockInit:USARTx <- $r4
	@DEBUG_VALUE: LL_USART_IsEnabled:USARTx <- $r4
	.loc	6 437 11                        @ ../Drivers/STM32F4xx_HAL_Driver/Inc\stm32f4xx_ll_usart.h:437:11
	ldr	r0, [r4, #12]
.Ltmp139:
	.loc	4 422 7                         @ ../Drivers/STM32F4xx_HAL_Driver/Src/stm32f4xx_ll_usart.c:422:7
	lsls	r0, r0, #18
	itt	mi
	movmi	r0, #1
.Ltmp140:
	@DEBUG_VALUE: LL_USART_ClockInit:status <- $r0
	.loc	4 462 3                         @ ../Drivers/STM32F4xx_HAL_Driver/Src/stm32f4xx_ll_usart.c:462:3
	popmi	{r4, r5, r7, pc}
.Ltmp141:
.LBB3_11:
	@DEBUG_VALUE: LL_USART_ClockInit:status <- $r0
	.loc	4 426 32                        @ ../Drivers/STM32F4xx_HAL_Driver/Src/stm32f4xx_ll_usart.c:426:32
	ldr	r0, [r5]
.Ltmp142:
	.loc	4 426 9 is_stmt 0               @ ../Drivers/STM32F4xx_HAL_Driver/Src/stm32f4xx_ll_usart.c:426:9
	cbz	r0, .LBB3_15
@ %bb.12:
	.loc	4 0 9                           @ ../Drivers/STM32F4xx_HAL_Driver/Src/stm32f4xx_ll_usart.c:0:9
	movw	r0, #4095
	movt	r0, #16385
.Ltmp143:
	.loc	4 436 7 is_stmt 1               @ ../Drivers/STM32F4xx_HAL_Driver/Src/stm32f4xx_ll_usart.c:436:7
	cmp	r4, r0
	bgt	.LBB3_16
@ %bb.13:
	.loc	4 0 7 is_stmt 0                 @ ../Drivers/STM32F4xx_HAL_Driver/Src/stm32f4xx_ll_usart.c:0:7
	movw	r0, #17408
	movt	r0, #16384
	.loc	4 436 7                         @ ../Drivers/STM32F4xx_HAL_Driver/Src/stm32f4xx_ll_usart.c:436:7
	cmp	r4, r0
	beq	.LBB3_18
@ %bb.14:
	.loc	4 0 7                           @ ../Drivers/STM32F4xx_HAL_Driver/Src/stm32f4xx_ll_usart.c:0:7
	movw	r0, #18432
	movt	r0, #16384
	.loc	4 436 7                         @ ../Drivers/STM32F4xx_HAL_Driver/Src/stm32f4xx_ll_usart.c:436:7
	cmp	r4, r0
	beq	.LBB3_18
	b	.LBB3_22
.Ltmp144:
	.p2align	2
.LBB3_15:
	@DEBUG_VALUE: LL_USART_DisableSCLKOutput:USARTx <- $r4
	.loc	6 778 3 is_stmt 1               @ ../Drivers/STM32F4xx_HAL_Driver/Inc\stm32f4xx_ll_usart.h:778:3
	ldr	r0, [r4, #16]
	bic	r0, r0, #2048
.Ltmp145:
	.loc	4 0 0 is_stmt 0                 @ ../Drivers/STM32F4xx_HAL_Driver/Src/stm32f4xx_ll_usart.c:0:0
	str	r0, [r4, #16]
	movs	r0, #0
.Ltmp146:
	@DEBUG_VALUE: LL_USART_ClockInit:status <- $r0
	.loc	4 462 3 is_stmt 1               @ ../Drivers/STM32F4xx_HAL_Driver/Src/stm32f4xx_ll_usart.c:462:3
	pop	{r4, r5, r7, pc}
.Ltmp147:
	.p2align	2
.LBB3_16:
	.loc	4 0 3 is_stmt 0                 @ ../Drivers/STM32F4xx_HAL_Driver/Src/stm32f4xx_ll_usart.c:0:3
	movw	r0, #4096
	movt	r0, #16385
.Ltmp148:
	.loc	4 436 7 is_stmt 1               @ ../Drivers/STM32F4xx_HAL_Driver/Src/stm32f4xx_ll_usart.c:436:7
	cmp	r4, r0
	beq	.LBB3_18
@ %bb.17:
	.loc	4 0 7 is_stmt 0                 @ ../Drivers/STM32F4xx_HAL_Driver/Src/stm32f4xx_ll_usart.c:0:7
	movw	r0, #5120
	movt	r0, #16385
	.loc	4 436 7                         @ ../Drivers/STM32F4xx_HAL_Driver/Src/stm32f4xx_ll_usart.c:436:7
	cmp	r4, r0
	bne	.LBB3_22
.LBB3_18:
	.loc	4 439 7 is_stmt 1               @ ../Drivers/STM32F4xx_HAL_Driver/Src/stm32f4xx_ll_usart.c:439:7
	ldr	r0, [r5, #4]
	orr	r0, r0, #1024
	cmp.w	r0, #1024
	bne	.LBB3_23
.LBB3_19:
	.loc	4 440 7                         @ ../Drivers/STM32F4xx_HAL_Driver/Src/stm32f4xx_ll_usart.c:440:7
	ldr	r0, [r5, #8]
	orr	r0, r0, #512
	cmp.w	r0, #512
	bne	.LBB3_24
.LBB3_20:
	.loc	4 441 7                         @ ../Drivers/STM32F4xx_HAL_Driver/Src/stm32f4xx_ll_usart.c:441:7
	ldr	r0, [r5, #12]
	orr	r1, r0, #256
	cmp.w	r1, #256
	bne	.LBB3_25
.LBB3_21:
	.loc	4 450 7                         @ ../Drivers/STM32F4xx_HAL_Driver/Src/stm32f4xx_ll_usart.c:450:7
	ldr	r1, [r4, #16]
	ldrd	r2, r3, [r5, #4]
	bic	r1, r1, #3840
	orrs	r1, r2
	orrs	r1, r3
	orrs	r0, r1
	orr	r0, r0, #2048
.Ltmp149:
	.loc	4 0 0 is_stmt 0                 @ ../Drivers/STM32F4xx_HAL_Driver/Src/stm32f4xx_ll_usart.c:0:0
	str	r0, [r4, #16]
	movs	r0, #0
.Ltmp150:
	@DEBUG_VALUE: LL_USART_ClockInit:status <- $r0
	.loc	4 462 3 is_stmt 1               @ ../Drivers/STM32F4xx_HAL_Driver/Src/stm32f4xx_ll_usart.c:462:3
	pop	{r4, r5, r7, pc}
.Ltmp151:
	.p2align	2
.LBB3_22:
	.loc	4 436 7                         @ ../Drivers/STM32F4xx_HAL_Driver/Src/stm32f4xx_ll_usart.c:436:7
	movw	r0, :lower16:.L.str
	movt	r0, :upper16:.L.str
	mov.w	r1, #436
	bl	assert_failed
.Ltmp152:
	.loc	4 439 7                         @ ../Drivers/STM32F4xx_HAL_Driver/Src/stm32f4xx_ll_usart.c:439:7
	ldr	r0, [r5, #4]
	orr	r0, r0, #1024
	cmp.w	r0, #1024
	beq	.LBB3_19
.LBB3_23:
	movw	r0, :lower16:.L.str
	movt	r0, :upper16:.L.str
	movw	r1, #439
	bl	assert_failed
.Ltmp153:
	.loc	4 440 7                         @ ../Drivers/STM32F4xx_HAL_Driver/Src/stm32f4xx_ll_usart.c:440:7
	ldr	r0, [r5, #8]
	orr	r0, r0, #512
	cmp.w	r0, #512
	beq	.LBB3_20
.LBB3_24:
	movw	r0, :lower16:.L.str
	movt	r0, :upper16:.L.str
	mov.w	r1, #440
	bl	assert_failed
.Ltmp154:
	.loc	4 441 7                         @ ../Drivers/STM32F4xx_HAL_Driver/Src/stm32f4xx_ll_usart.c:441:7
	ldr	r0, [r5, #12]
	orr	r1, r0, #256
	cmp.w	r1, #256
	beq	.LBB3_21
.LBB3_25:
	movw	r0, :lower16:.L.str
	movt	r0, :upper16:.L.str
	movw	r1, #441
	bl	assert_failed
.Ltmp155:
	.loc	4 450 7                         @ ../Drivers/STM32F4xx_HAL_Driver/Src/stm32f4xx_ll_usart.c:450:7
	ldr	r0, [r5, #12]
	b	.LBB3_21
.Ltmp156:
.Lfunc_end3:
	.size	LL_USART_ClockInit, .Lfunc_end3-LL_USART_ClockInit
	.cfi_endproc
	.cantunwind
	.fnend
                                        @ -- End function
	.section	.text.LL_USART_ClockStructInit,"ax",%progbits
	.hidden	LL_USART_ClockStructInit        @ -- Begin function LL_USART_ClockStructInit
	.globl	LL_USART_ClockStructInit
	.p2align	2
	.type	LL_USART_ClockStructInit,%function
	.code	16                              @ @LL_USART_ClockStructInit
	.thumb_func
LL_USART_ClockStructInit:
.Lfunc_begin4:
	.loc	4 472 0                         @ ../Drivers/STM32F4xx_HAL_Driver/Src/stm32f4xx_ll_usart.c:472:0
	.fnstart
	.cfi_startproc
@ %bb.0:
	@DEBUG_VALUE: LL_USART_ClockStructInit:USART_ClockInitStruct <- $r0
	movs	r1, #0
.Ltmp157:
	.loc	4 475 44 prologue_end           @ ../Drivers/STM32F4xx_HAL_Driver/Src/stm32f4xx_ll_usart.c:475:44
	strd	r1, r1, [r0]
	strd	r1, r1, [r0, #8]
	.loc	4 478 1                         @ ../Drivers/STM32F4xx_HAL_Driver/Src/stm32f4xx_ll_usart.c:478:1
	bx	lr
.Ltmp158:
.Lfunc_end4:
	.size	LL_USART_ClockStructInit, .Lfunc_end4-LL_USART_ClockStructInit
	.cfi_endproc
	.cantunwind
	.fnend
                                        @ -- End function
	.type	.L.str,%object                  @ @.str
	.section	.rodata.str1.1,"aMS",%progbits,1
.L.str:
	.asciz	"../Drivers/STM32F4xx_HAL_Driver/Src/stm32f4xx_ll_usart.c"
	.size	.L.str, 57

	.file	7 "f:\\OwnProject\\CubeMX\\stm32f407_ll_usart_dma\\MDK-ARM" "../Drivers/STM32F4xx_HAL_Driver/Inc\\stm32f4xx_ll_rcc.h"
	.section	".note.GNU-stack","",%progbits
	.eabi_attribute	30, 2	@ Tag_ABI_optimization_goals
	.ARM_attribute	16, 1	@ Tag_AV_eba