	.text
	.syntax unified
	.eabi_attribute	67, "2.09"	@ Tag_conformance
	.cpu	cortex-m4
	.eabi_attribute	6, 13	@ Tag_CPU_arch
	.eabi_attribute	7, 77	@ Tag_CPU_arch_profile
	.eabi_attribute	8, 0	@ Tag_ARM_ISA_use
	.eabi_attribute	9, 2	@ Tag_THUMB_ISA_use
	.fpu	fpv4-sp-d16
	.eabi_attribute	27, 1	@ Tag_ABI_HardFP_use
	.eabi_attribute	36, 1	@ Tag_FP_HP_extension
	.eabi_attribute	34, 1	@ Tag_CPU_unaligned_access
	.eabi_attribute	17, 1	@ Tag_ABI_PCS_GOT_use
	.eabi_attribute	20, 2	@ Tag_ABI_FP_denormal
	.eabi_attribute	21, 0	@ Tag_ABI_FP_exceptions
	.eabi_attribute	23, 1	@ Tag_ABI_FP_number_model
	.eabi_attribute	24, 1	@ Tag_ABI_align_needed
	.eabi_attribute	25, 1	@ Tag_ABI_align_preserved
	.eabi_attribute	28, 1	@ Tag_ABI_VFP_args
	.eabi_attribute	38, 1	@ Tag_ABI_FP_16bit_format
	.eabi_attribute	18, 2	@ Tag_ABI_PCS_wchar_t
	.eabi_attribute	26, 1	@ Tag_ABI_enum_size
	.eabi_attribute	14, 0	@ Tag_ABI_PCS_R9_use
	.file	"usart.c"
	.file	1 "D:\\ProgramFiles\\KEIL\\ARM\\ARMCLANG\\Bin\\..\\include" "stdint.h"
	.file	2 "f:\\OwnProject\\CubeMX\\stm32f407_ll_usart_dma\\MDK-ARM" "../Drivers/STM32F4xx_HAL_Driver/Inc\\stm32f4xx_ll_dma.h"
	.file	3 "f:\\OwnProject\\CubeMX\\stm32f407_ll_usart_dma\\MDK-ARM" "../Drivers/CMSIS/Device/ST/STM32F4xx/Include\\stm32f4xx.h"
	.file	4 "f:\\OwnProject\\CubeMX\\stm32f407_ll_usart_dma\\MDK-ARM" "../Drivers/CMSIS/Device/ST/STM32F4xx/Include/stm32f407xx.h"
	.file	5 "f:\\OwnProject\\CubeMX\\stm32f407_ll_usart_dma\\MDK-ARM" "../Drivers/CMSIS/Include\\core_cm4.h"
	.section	.text.MX_USART1_UART_Init,"ax",%progbits
	.hidden	MX_USART1_UART_Init             @ -- Begin function MX_USART1_UART_Init
	.globl	MX_USART1_UART_Init
	.p2align	2
	.type	MX_USART1_UART_Init,%function
	.code	16                              @ @MX_USART1_UART_Init
	.thumb_func
MX_USART1_UART_Init:
.Lfunc_begin0:
	.file	6 "f:\\OwnProject\\CubeMX\\stm32f407_ll_usart_dma\\MDK-ARM" "../Core/Src/usart.c"
	.loc	6 30 0                          @ ../Core/Src/usart.c:30:0
	.fnstart
	.cfi_sections .debug_frame
	.cfi_startproc
@ %bb.0:
	.save	{r4, r5, r7, lr}
	push	{r4, r5, r7, lr}
	.cfi_def_cfa_offset 16
	.cfi_offset lr, -4
	.cfi_offset r7, -8
	.cfi_offset r5, -12
	.cfi_offset r4, -16
	.pad	#56
	sub	sp, #56
	.cfi_def_cfa_offset 72
	movw	r0, #14384
	movt	r0, #16386
.Ltmp0:
	@DEBUG_VALUE: LL_APB2_GRP1_EnableClock:Periphs <- 16
	.file	7 "f:\\OwnProject\\CubeMX\\stm32f407_ll_usart_dma\\MDK-ARM" "../Drivers/STM32F4xx_HAL_Driver/Inc\\stm32f4xx_ll_bus.h"
	.loc	7 1707 3 prologue_end           @ ../Drivers/STM32F4xx_HAL_Driver/Inc\stm32f4xx_ll_bus.h:1707:3
	ldr	r1, [r0, #20]
	movw	r4, #4108
	orr	r1, r1, #16
	str	r1, [r0, #20]
	.loc	7 1709 12                       @ ../Drivers/STM32F4xx_HAL_Driver/Inc\stm32f4xx_ll_bus.h:1709:12
	ldr	r1, [r0, #20]
	movt	r4, #16385
	and	r1, r1, #16
	.loc	7 1709 10 is_stmt 0             @ ../Drivers/STM32F4xx_HAL_Driver/Inc\stm32f4xx_ll_bus.h:1709:10
	str	r1, [sp, #28]
	.loc	7 1710 9 is_stmt 1              @ ../Drivers/STM32F4xx_HAL_Driver/Inc\stm32f4xx_ll_bus.h:1710:9
	ldr	r1, [sp, #28]
.Ltmp1:
	@DEBUG_VALUE: LL_AHB1_GRP1_EnableClock:Periphs <- 1
	.loc	7 412 3                         @ ../Drivers/STM32F4xx_HAL_Driver/Inc\stm32f4xx_ll_bus.h:412:3
	ldr	r1, [r0]
	movs	r5, #0
	orr	r1, r1, #1
	str	r1, [r0]
	.loc	7 414 12                        @ ../Drivers/STM32F4xx_HAL_Driver/Inc\stm32f4xx_ll_bus.h:414:12
	ldr	r0, [r0]
	add	r1, sp, #4
	and	r0, r0, #1
	.loc	7 414 10 is_stmt 0              @ ../Drivers/STM32F4xx_HAL_Driver/Inc\stm32f4xx_ll_bus.h:414:10
	str	r0, [sp, #28]
	.loc	7 415 9 is_stmt 1               @ ../Drivers/STM32F4xx_HAL_Driver/Inc\stm32f4xx_ll_bus.h:415:9
	ldr	r0, [sp, #28]
	mov.w	r0, #1536
.Ltmp2:
	.loc	6 48 23                         @ ../Core/Src/usart.c:48:23
	str	r0, [sp, #4]
	movs	r0, #2
	.loc	6 49 24                         @ ../Core/Src/usart.c:49:24
	str	r0, [sp, #8]
	movs	r0, #3
	.loc	6 50 25                         @ ../Core/Src/usart.c:50:25
	str	r0, [sp, #12]
	movs	r0, #7
	.loc	6 53 29                         @ ../Core/Src/usart.c:53:29
	str	r0, [sp, #24]
	movw	r0, #61428
	.loc	6 54 3                          @ ../Core/Src/usart.c:54:3
	add	r0, r4
	.loc	6 51 30                         @ ../Core/Src/usart.c:51:30
	strd	r5, r5, [sp, #16]
	.loc	6 54 3                          @ ../Core/Src/usart.c:54:3
	bl	LL_GPIO_Init
.Ltmp3:
	.loc	6 0 3 is_stmt 0                 @ ../Core/Src/usart.c:0:3
	movw	r0, #25664
	movt	r0, #16386
.Ltmp4:
	@DEBUG_VALUE: LL_DMA_SetChannelSelection:Channel <- 134217728
	@DEBUG_VALUE: LL_DMA_SetChannelSelection:Stream <- 2
	.loc	2 1021 3 is_stmt 1              @ ../Drivers/STM32F4xx_HAL_Driver/Inc\stm32f4xx_ll_dma.h:1021:3
	ldr	r2, [r0]
	movs	r1, #4
	bfi	r2, r1, #25, #3
	str	r2, [r0]
.Ltmp5:
	@DEBUG_VALUE: LL_DMA_SetDataTransferDirection:Direction <- 0
	@DEBUG_VALUE: LL_DMA_SetDataTransferDirection:Stream <- 2
	.loc	2 597 3                         @ ../Drivers/STM32F4xx_HAL_Driver/Inc\stm32f4xx_ll_dma.h:597:3
	ldr	r2, [r0]
	bic	r2, r2, #192
	str	r2, [r0]
.Ltmp6:
	@DEBUG_VALUE: LL_DMA_SetStreamPriorityLevel:Priority <- 0
	@DEBUG_VALUE: LL_DMA_SetStreamPriorityLevel:Stream <- 2
	.loc	2 923 3                         @ ../Drivers/STM32F4xx_HAL_Driver/Inc\stm32f4xx_ll_dma.h:923:3
	ldr	r2, [r0]
	bic	r2, r2, #196608
	str	r2, [r0]
.Ltmp7:
	@DEBUG_VALUE: LL_DMA_SetMode:Mode <- 0
	@DEBUG_VALUE: LL_DMA_SetMode:Stream <- 2
	.loc	2 645 3                         @ ../Drivers/STM32F4xx_HAL_Driver/Inc\stm32f4xx_ll_dma.h:645:3
	ldr	r2, [r0]
	bic	r2, r2, #288
	str	r2, [r0]
.Ltmp8:
	@DEBUG_VALUE: LL_DMA_SetPeriphIncMode:IncrementMode <- 0
	@DEBUG_VALUE: LL_DMA_SetPeriphIncMode:Stream <- 2
	.loc	2 692 3                         @ ../Drivers/STM32F4xx_HAL_Driver/Inc\stm32f4xx_ll_dma.h:692:3
	ldr	r2, [r0]
	bic	r2, r2, #512
	str	r2, [r0]
.Ltmp9:
	@DEBUG_VALUE: LL_DMA_SetMemoryIncMode:IncrementMode <- 1024
	@DEBUG_VALUE: LL_DMA_SetMemoryIncMode:Stream <- 2
	.loc	2 737 3                         @ ../Drivers/STM32F4xx_HAL_Driver/Inc\stm32f4xx_ll_dma.h:737:3
	ldr	r2, [r0]
	orr	r2, r2, #1024
	str	r2, [r0]
.Ltmp10:
	@DEBUG_VALUE: LL_DMA_SetPeriphSize:Size <- 0
	@DEBUG_VALUE: LL_DMA_SetPeriphSize:Stream <- 2
	.loc	2 783 3                         @ ../Drivers/STM32F4xx_HAL_Driver/Inc\stm32f4xx_ll_dma.h:783:3
	ldr	r2, [r0]
	bic	r2, r2, #6144
	str	r2, [r0]
.Ltmp11:
	@DEBUG_VALUE: LL_DMA_SetMemorySize:Size <- 0
	@DEBUG_VALUE: LL_DMA_SetMemorySize:Stream <- 2
	.loc	2 830 3                         @ ../Drivers/STM32F4xx_HAL_Driver/Inc\stm32f4xx_ll_dma.h:830:3
	ldr	r2, [r0]
	bic	r2, r2, #24576
	str	r2, [r0]
.Ltmp12:
	@DEBUG_VALUE: LL_DMA_DisableFifoMode:Stream <- 2
	.loc	2 1278 3                        @ ../Drivers/STM32F4xx_HAL_Driver/Inc\stm32f4xx_ll_dma.h:1278:3
	ldr	r2, [r0, #20]
	bic	r2, r2, #4
	str	r2, [r0, #20]
.Ltmp13:
	@DEBUG_VALUE: LL_DMA_SetChannelSelection:Channel <- 134217728
	@DEBUG_VALUE: LL_DMA_SetChannelSelection:Stream <- 7
	@DEBUG_VALUE: LL_DMA_SetChannelSelection:DMAx <- undef
	.loc	2 1021 3                        @ ../Drivers/STM32F4xx_HAL_Driver/Inc\stm32f4xx_ll_dma.h:1021:3
	ldr	r2, [r0, #120]
	bfi	r2, r1, #25, #3
	str	r2, [r0, #120]
.Ltmp14:
	@DEBUG_VALUE: LL_DMA_SetDataTransferDirection:Direction <- 64
	@DEBUG_VALUE: LL_DMA_SetDataTransferDirection:Stream <- 7
	@DEBUG_VALUE: LL_DMA_SetDataTransferDirection:DMAx <- undef
	.loc	2 597 3                         @ ../Drivers/STM32F4xx_HAL_Driver/Inc\stm32f4xx_ll_dma.h:597:3
	ldr	r1, [r0, #120]
	movs	r2, #1
	bfi	r1, r2, #6, #2
	str	r1, [r0, #120]
.Ltmp15:
	@DEBUG_VALUE: LL_DMA_SetStreamPriorityLevel:Priority <- 0
	@DEBUG_VALUE: LL_DMA_SetStreamPriorityLevel:Stream <- 7
	@DEBUG_VALUE: LL_DMA_SetStreamPriorityLevel:DMAx <- undef
	.loc	2 923 3                         @ ../Drivers/STM32F4xx_HAL_Driver/Inc\stm32f4xx_ll_dma.h:923:3
	ldr	r1, [r0, #120]
	bic	r1, r1, #196608
	str	r1, [r0, #120]
.Ltmp16:
	@DEBUG_VALUE: LL_DMA_SetMode:Mode <- 0
	@DEBUG_VALUE: LL_DMA_SetMode:Stream <- 7
	@DEBUG_VALUE: LL_DMA_SetMode:DMAx <- undef
	.loc	2 645 3                         @ ../Drivers/STM32F4xx_HAL_Driver/Inc\stm32f4xx_ll_dma.h:645:3
	ldr	r1, [r0, #120]
	bic	r1, r1, #288
	str	r1, [r0, #120]
.Ltmp17:
	@DEBUG_VALUE: LL_DMA_SetPeriphIncMode:IncrementMode <- 0
	@DEBUG_VALUE: LL_DMA_SetPeriphIncMode:Stream <- 7
	@DEBUG_VALUE: LL_DMA_SetPeriphIncMode:DMAx <- undef
	.loc	2 692 3                         @ ../Drivers/STM32F4xx_HAL_Driver/Inc\stm32f4xx_ll_dma.h:692:3
	ldr	r1, [r0, #120]
	bic	r1, r1, #512
	str	r1, [r0, #120]
.Ltmp18:
	@DEBUG_VALUE: LL_DMA_SetMemoryIncMode:IncrementMode <- 1024
	@DEBUG_VALUE: LL_DMA_SetMemoryIncMode:Stream <- 7
	@DEBUG_VALUE: LL_DMA_SetMemoryIncMode:DMAx <- undef
	.loc	2 737 3                         @ ../Drivers/STM32F4xx_HAL_Driver/Inc\stm32f4xx_ll_dma.h:737:3
	ldr	r1, [r0, #120]
	orr	r1, r1, #1024
	str	r1, [r0, #120]
.Ltmp19:
	@DEBUG_VALUE: LL_DMA_SetPeriphSize:Size <- 0
	@DEBUG_VALUE: LL_DMA_SetPeriphSize:Stream <- 7
	@DEBUG_VALUE: LL_DMA_SetPeriphSize:DMAx <- undef
	.loc	2 783 3                         @ ../Drivers/STM32F4xx_HAL_Driver/Inc\stm32f4xx_ll_dma.h:783:3
	ldr	r1, [r0, #120]
	bic	r1, r1, #6144
	str	r1, [r0, #120]
.Ltmp20:
	@DEBUG_VALUE: LL_DMA_SetMemorySize:Size <- 0
	@DEBUG_VALUE: LL_DMA_SetMemorySize:Stream <- 7
	@DEBUG_VALUE: LL_DMA_SetMemorySize:DMAx <- undef
	.loc	2 830 3                         @ ../Drivers/STM32F4xx_HAL_Driver/Inc\stm32f4xx_ll_dma.h:830:3
	ldr	r1, [r0, #120]
	bic	r1, r1, #24576
	str	r1, [r0, #120]
.Ltmp21:
	@DEBUG_VALUE: LL_DMA_DisableFifoMode:Stream <- 7
	@DEBUG_VALUE: LL_DMA_DisableFifoMode:DMAx <- undef
	.loc	2 1278 3                        @ ../Drivers/STM32F4xx_HAL_Driver/Inc\stm32f4xx_ll_dma.h:1278:3
	ldr.w	r1, [r0, #140]
	bic	r1, r1, #4
	str.w	r1, [r0, #140]
	movw	r0, #60684
	movt	r0, #57344
.Ltmp22:
	.loc	5 1678 28                       @ ../Drivers/CMSIS/Include\core_cm4.h:1678:28
	ldr	r0, [r0]
	movw	r0, #58405
	movt	r0, #57344
.Ltmp23:
	@DEBUG_VALUE: __NVIC_SetPriority:priority <- 0
	@DEBUG_VALUE: __NVIC_SetPriority:IRQn <- 37
	.loc	5 1820 46                       @ ../Drivers/CMSIS/Include\core_cm4.h:1820:46
	strb	r5, [r0]
	movw	r0, #57604
	movt	r0, #57344
	movs	r1, #32
.Ltmp24:
	@DEBUG_VALUE: __NVIC_EnableIRQ:IRQn <- 37
	.loc	5 1692 43                       @ ../Drivers/CMSIS/Include\core_cm4.h:1692:43
	str	r1, [r0]
	mov.w	r0, #115200
.Ltmp25:
	.loc	6 103 29                        @ ../Core/Src/usart.c:103:29
	strd	r0, r5, [sp, #28]
	movs	r0, #12
	.loc	6 107 38                        @ ../Core/Src/usart.c:107:38
	strd	r0, r5, [sp, #44]
	.loc	6 110 3                         @ ../Core/Src/usart.c:110:3
	sub.w	r0, r4, #12
	add	r1, sp, #28
	.loc	6 105 29                        @ ../Core/Src/usart.c:105:29
	strd	r5, r5, [sp, #36]
	.loc	6 109 33                        @ ../Core/Src/usart.c:109:33
	str	r5, [sp, #52]
	.loc	6 110 3                         @ ../Core/Src/usart.c:110:3
	bl	LL_USART_Init
.Ltmp26:
	.file	8 "f:\\OwnProject\\CubeMX\\stm32f407_ll_usart_dma\\MDK-ARM" "../Drivers/STM32F4xx_HAL_Driver/Inc\\stm32f4xx_ll_usart.h"
	.loc	8 1484 3                        @ ../Drivers/STM32F4xx_HAL_Driver/Inc\stm32f4xx_ll_usart.h:1484:3
	ldr	r0, [r4, #4]
	bic	r0, r0, #18432
	str	r0, [r4, #4]
	.loc	8 1485 3                        @ ../Drivers/STM32F4xx_HAL_Driver/Inc\stm32f4xx_ll_usart.h:1485:3
	ldr	r0, [r4, #8]
	bic	r0, r0, #42
	str	r0, [r4, #8]
.Ltmp27:
	.loc	8 412 3                         @ ../Drivers/STM32F4xx_HAL_Driver/Inc\stm32f4xx_ll_usart.h:412:3
	ldr	r0, [r4]
	orr	r0, r0, #8192
	str	r0, [r4]
.Ltmp28:
	@DEBUG_VALUE: LL_USART_Enable:USARTx <- undef
	@DEBUG_VALUE: LL_USART_ConfigAsyncMode:USARTx <- undef
	@DEBUG_VALUE: LL_DMA_DisableFifoMode:DMAx <- undef
	@DEBUG_VALUE: LL_DMA_SetMemorySize:DMAx <- undef
	@DEBUG_VALUE: LL_DMA_SetPeriphSize:DMAx <- undef
	@DEBUG_VALUE: LL_DMA_SetMemoryIncMode:DMAx <- undef
	@DEBUG_VALUE: LL_DMA_SetPeriphIncMode:DMAx <- undef
	@DEBUG_VALUE: LL_DMA_SetMode:DMAx <- undef
	@DEBUG_VALUE: LL_DMA_SetStreamPriorityLevel:DMAx <- undef
	@DEBUG_VALUE: LL_DMA_SetDataTransferDirection:DMAx <- undef
	@DEBUG_VALUE: LL_DMA_SetChannelSelection:DMAx <- undef
	.loc	6 117 1                         @ ../Core/Src/usart.c:117:1
	add	sp, #56
	pop	{r4, r5, r7, pc}
.Ltmp29:
.Lfunc_end0:
	.size	MX_USART1_UART_Init, .Lfunc_end0-MX_USART1_UART_Init
	.cfi_endproc
	.cantunwind
	.fnend
                                        @ -- End function
	.section	.text.MX_USART2_UART_Init,"ax",%progbits
	.hidden	MX_USART2_UART_Init             @ -- Begin function MX_USART2_UART_Init
	.globl	MX_USART2_UART_Init
	.p2align	2
	.type	MX_USART2_UART_Init,%function
	.code	16                              @ @MX_USART2_UART_Init
	.thumb_func
MX_USART2_UART_Init:
.Lfunc_begin1:
	.loc	6 121 0                         @ ../Core/Src/usart.c:121:0
	.fnstart
	.cfi_startproc
@ %bb.0:
	.save	{r4, r5, r6, lr}
	push	{r4, r5, r6, lr}
	.cfi_def_cfa_offset 16
	.cfi_offset lr, -4
	.cfi_offset r6, -8
	.cfi_offset r5, -12
	.cfi_offset r4, -16
	.pad	#56
	sub	sp, #56
	.cfi_def_cfa_offset 72
	movw	r0, #14384
	movt	r0, #16386
.Ltmp30:
	@DEBUG_VALUE: LL_APB1_GRP1_EnableClock:Periphs <- 131072
	.loc	7 1188 3 prologue_end           @ ../Drivers/STM32F4xx_HAL_Driver/Inc\stm32f4xx_ll_bus.h:1188:3
	ldr	r1, [r0, #16]
	movw	r4, #17420
	orr	r1, r1, #131072
	str	r1, [r0, #16]
	.loc	7 1190 12                       @ ../Drivers/STM32F4xx_HAL_Driver/Inc\stm32f4xx_ll_bus.h:1190:12
	ldr	r1, [r0, #16]
	movt	r4, #16384
	and	r1, r1, #131072
	.loc	7 1190 10 is_stmt 0             @ ../Drivers/STM32F4xx_HAL_Driver/Inc\stm32f4xx_ll_bus.h:1190:10
	str	r1, [sp, #28]
	.loc	7 1191 9 is_stmt 1              @ ../Drivers/STM32F4xx_HAL_Driver/Inc\stm32f4xx_ll_bus.h:1191:9
	ldr	r1, [sp, #28]
.Ltmp31:
	@DEBUG_VALUE: LL_AHB1_GRP1_EnableClock:Periphs <- 1
	.loc	7 412 3                         @ ../Drivers/STM32F4xx_HAL_Driver/Inc\stm32f4xx_ll_bus.h:412:3
	ldr	r1, [r0]
	movs	r5, #12
	orr	r1, r1, #1
	str	r1, [r0]
	.loc	7 414 12                        @ ../Drivers/STM32F4xx_HAL_Driver/Inc\stm32f4xx_ll_bus.h:414:12
	ldr	r0, [r0]
	movs	r6, #0
	and	r0, r0, #1
	.loc	7 414 10 is_stmt 0              @ ../Drivers/STM32F4xx_HAL_Driver/Inc\stm32f4xx_ll_bus.h:414:10
	str	r0, [sp, #28]
	.loc	7 415 9 is_stmt 1               @ ../Drivers/STM32F4xx_HAL_Driver/Inc\stm32f4xx_ll_bus.h:415:9
	ldr	r0, [sp, #28]
	movs	r0, #2
.Ltmp32:
	.loc	6 140 24                        @ ../Core/Src/usart.c:140:24
	str	r0, [sp, #8]
	movs	r0, #3
	.loc	6 141 25                        @ ../Core/Src/usart.c:141:25
	str	r0, [sp, #12]
	movs	r0, #7
	.loc	6 144 29                        @ ../Core/Src/usart.c:144:29
	str	r0, [sp, #24]
	.loc	6 145 3                         @ ../Core/Src/usart.c:145:3
	add.w	r0, r4, #112640
	add.w	r0, r0, #1012
	add	r1, sp, #4
	.loc	6 139 23                        @ ../Core/Src/usart.c:139:23
	str	r5, [sp, #4]
	.loc	6 142 30                        @ ../Core/Src/usart.c:142:30
	strd	r6, r6, [sp, #16]
	.loc	6 145 3                         @ ../Core/Src/usart.c:145:3
	bl	LL_GPIO_Init
.Ltmp33:
	.loc	6 0 3 is_stmt 0                 @ ../Core/Src/usart.c:0:3
	movw	r0, #24712
	movt	r0, #16386
.Ltmp34:
	@DEBUG_VALUE: LL_DMA_SetChannelSelection:Channel <- 134217728
	@DEBUG_VALUE: LL_DMA_SetChannelSelection:Stream <- 5
	.loc	2 1021 3 is_stmt 1              @ ../Drivers/STM32F4xx_HAL_Driver/Inc\stm32f4xx_ll_dma.h:1021:3
	ldr	r2, [r0]
	movs	r1, #4
	bfi	r2, r1, #25, #3
	str	r2, [r0]
.Ltmp35:
	@DEBUG_VALUE: LL_DMA_SetDataTransferDirection:Direction <- 0
	@DEBUG_VALUE: LL_DMA_SetDataTransferDirection:Stream <- 5
	.loc	2 597 3                         @ ../Drivers/STM32F4xx_HAL_Driver/Inc\stm32f4xx_ll_dma.h:597:3
	ldr	r2, [r0]
	bic	r2, r2, #192
	str	r2, [r0]
.Ltmp36:
	@DEBUG_VALUE: LL_DMA_SetStreamPriorityLevel:Priority <- 0
	@DEBUG_VALUE: LL_DMA_SetStreamPriorityLevel:Stream <- 5
	.loc	2 923 3                         @ ../Drivers/STM32F4xx_HAL_Driver/Inc\stm32f4xx_ll_dma.h:923:3
	ldr	r2, [r0]
	bic	r2, r2, #196608
	str	r2, [r0]
.Ltmp37:
	@DEBUG_VALUE: LL_DMA_SetMode:Mode <- 0
	@DEBUG_VALUE: LL_DMA_SetMode:Stream <- 5
	.loc	2 645 3                         @ ../Drivers/STM32F4xx_HAL_Driver/Inc\stm32f4xx_ll_dma.h:645:3
	ldr	r2, [r0]
	bic	r2, r2, #288
	str	r2, [r0]
.Ltmp38:
	@DEBUG_VALUE: LL_DMA_SetPeriphIncMode:IncrementMode <- 0
	@DEBUG_VALUE: LL_DMA_SetPeriphIncMode:Stream <- 5
	.loc	2 692 3                         @ ../Drivers/STM32F4xx_HAL_Driver/Inc\stm32f4xx_ll_dma.h:692:3
	ldr	r2, [r0]
	bic	r2, r2, #512
	str	r2, [r0]
.Ltmp39:
	@DEBUG_VALUE: LL_DMA_SetMemoryIncMode:IncrementMode <- 1024
	@DEBUG_VALUE: LL_DMA_SetMemoryIncMode:Stream <- 5
	.loc	2 737 3                         @ ../Drivers/STM32F4xx_HAL_Driver/Inc\stm32f4xx_ll_dma.h:737:3
	ldr	r2, [r0]
	orr	r2, r2, #1024
	str	r2, [r0]
.Ltmp40:
	@DEBUG_VALUE: LL_DMA_SetPeriphSize:Size <- 0
	@DEBUG_VALUE: LL_DMA_SetPeriphSize:Stream <- 5
	.loc	2 783 3                         @ ../Drivers/STM32F4xx_HAL_Driver/Inc\stm32f4xx_ll_dma.h:783:3
	ldr	r2, [r0]
	bic	r2, r2, #6144
	str	r2, [r0]
.Ltmp41:
	@DEBUG_VALUE: LL_DMA_SetMemorySize:Size <- 0
	@DEBUG_VALUE: LL_DMA_SetMemorySize:Stream <- 5
	.loc	2 830 3                         @ ../Drivers/STM32F4xx_HAL_Driver/Inc\stm32f4xx_ll_dma.h:830:3
	ldr	r2, [r0]
	bic	r2, r2, #24576
	str	r2, [r0]
.Ltmp42:
	@DEBUG_VALUE: LL_DMA_DisableFifoMode:Stream <- 5
	.loc	2 1278 3                        @ ../Drivers/STM32F4xx_HAL_Driver/Inc\stm32f4xx_ll_dma.h:1278:3
	ldr	r2, [r0, #20]
	bic	r2, r2, #4
	str	r2, [r0, #20]
.Ltmp43:
	@DEBUG_VALUE: LL_DMA_SetChannelSelection:Channel <- 134217728
	@DEBUG_VALUE: LL_DMA_SetChannelSelection:Stream <- 6
	@DEBUG_VALUE: LL_DMA_SetChannelSelection:DMAx <- undef
	.loc	2 1021 3                        @ ../Drivers/STM32F4xx_HAL_Driver/Inc\stm32f4xx_ll_dma.h:1021:3
	ldr	r2, [r0, #24]
	bfi	r2, r1, #25, #3
	str	r2, [r0, #24]
.Ltmp44:
	@DEBUG_VALUE: LL_DMA_SetDataTransferDirection:Direction <- 64
	@DEBUG_VALUE: LL_DMA_SetDataTransferDirection:Stream <- 6
	@DEBUG_VALUE: LL_DMA_SetDataTransferDirection:DMAx <- undef
	.loc	2 597 3                         @ ../Drivers/STM32F4xx_HAL_Driver/Inc\stm32f4xx_ll_dma.h:597:3
	ldr	r1, [r0, #24]
	movs	r2, #1
	bfi	r1, r2, #6, #2
	str	r1, [r0, #24]
.Ltmp45:
	@DEBUG_VALUE: LL_DMA_SetStreamPriorityLevel:Priority <- 0
	@DEBUG_VALUE: LL_DMA_SetStreamPriorityLevel:Stream <- 6
	@DEBUG_VALUE: LL_DMA_SetStreamPriorityLevel:DMAx <- undef
	.loc	2 923 3                         @ ../Drivers/STM32F4xx_HAL_Driver/Inc\stm32f4xx_ll_dma.h:923:3
	ldr	r1, [r0, #24]
	bic	r1, r1, #196608
	str	r1, [r0, #24]
.Ltmp46:
	@DEBUG_VALUE: LL_DMA_SetMode:Mode <- 0
	@DEBUG_VALUE: LL_DMA_SetMode:Stream <- 6
	@DEBUG_VALUE: LL_DMA_SetMode:DMAx <- undef
	.loc	2 645 3                         @ ../Drivers/STM32F4xx_HAL_Driver/Inc\stm32f4xx_ll_dma.h:645:3
	ldr	r1, [r0, #24]
	bic	r1, r1, #288
	str	r1, [r0, #24]
.Ltmp47:
	@DEBUG_VALUE: LL_DMA_SetPeriphIncMode:IncrementMode <- 0
	@DEBUG_VALUE: LL_DMA_SetPeriphIncMode:Stream <- 6
	@DEBUG_VALUE: LL_DMA_SetPeriphIncMode:DMAx <- undef
	.loc	2 692 3                         @ ../Drivers/STM32F4xx_HAL_Driver/Inc\stm32f4xx_ll_dma.h:692:3
	ldr	r1, [r0, #24]
	bic	r1, r1, #512
	str	r1, [r0, #24]
.Ltmp48:
	@DEBUG_VALUE: LL_DMA_SetMemoryIncMode:IncrementMode <- 1024
	@DEBUG_VALUE: LL_DMA_SetMemoryIncMode:Stream <- 6
	@DEBUG_VALUE: LL_DMA_SetMemoryIncMode:DMAx <- undef
	.loc	2 737 3                         @ ../Drivers/STM32F4xx_HAL_Driver/Inc\stm32f4xx_ll_dma.h:737:3
	ldr	r1, [r0, #24]
	orr	r1, r1, #1024
	str	r1, [r0, #24]
.Ltmp49:
	@DEBUG_VALUE: LL_DMA_SetPeriphSize:Size <- 0
	@DEBUG_VALUE: LL_DMA_SetPeriphSize:Stream <- 6
	@DEBUG_VALUE: LL_DMA_SetPeriphSize:DMAx <- undef
	.loc	2 783 3                         @ ../Drivers/STM32F4xx_HAL_Driver/Inc\stm32f4xx_ll_dma.h:783:3
	ldr	r1, [r0, #24]
	bic	r1, r1, #6144
	str	r1, [r0, #24]
.Ltmp50:
	@DEBUG_VALUE: LL_DMA_SetMemorySize:Size <- 0
	@DEBUG_VALUE: LL_DMA_SetMemorySize:Stream <- 6
	@DEBUG_VALUE: LL_DMA_SetMemorySize:DMAx <- undef
	.loc	2 830 3                         @ ../Drivers/STM32F4xx_HAL_Driver/Inc\stm32f4xx_ll_dma.h:830:3
	ldr	r1, [r0, #24]
	bic	r1, r1, #24576
	str	r1, [r0, #24]
.Ltmp51:
	@DEBUG_VALUE: LL_DMA_DisableFifoMode:Stream <- 6
	@DEBUG_VALUE: LL_DMA_DisableFifoMode:DMAx <- undef
	.loc	2 1278 3                        @ ../Drivers/STM32F4xx_HAL_Driver/Inc\stm32f4xx_ll_dma.h:1278:3
	ldr	r1, [r0, #44]
	bic	r1, r1, #4
	str	r1, [r0, #44]
	movw	r0, #60684
	movt	r0, #57344
.Ltmp52:
	.loc	5 1678 28                       @ ../Drivers/CMSIS/Include\core_cm4.h:1678:28
	ldr	r0, [r0]
	movw	r0, #58406
	movt	r0, #57344
.Ltmp53:
	@DEBUG_VALUE: __NVIC_SetPriority:priority <- 0
	@DEBUG_VALUE: __NVIC_SetPriority:IRQn <- 38
	.loc	5 1820 46                       @ ../Drivers/CMSIS/Include\core_cm4.h:1820:46
	strb	r6, [r0]
	movw	r0, #57604
	movt	r0, #57344
	movs	r1, #64
.Ltmp54:
	@DEBUG_VALUE: __NVIC_EnableIRQ:IRQn <- 38
	.loc	5 1692 43                       @ ../Drivers/CMSIS/Include\core_cm4.h:1692:43
	str	r1, [r0]
	mov.w	r0, #115200
.Ltmp55:
	.loc	6 194 29                        @ ../Core/Src/usart.c:194:29
	strd	r0, r6, [sp, #28]
	.loc	6 201 3                         @ ../Core/Src/usart.c:201:3
	sub.w	r0, r4, #12
	add	r1, sp, #28
	.loc	6 196 29                        @ ../Core/Src/usart.c:196:29
	strd	r6, r6, [sp, #36]
	.loc	6 198 38                        @ ../Core/Src/usart.c:198:38
	strd	r5, r6, [sp, #44]
	.loc	6 200 33                        @ ../Core/Src/usart.c:200:33
	str	r6, [sp, #52]
	.loc	6 201 3                         @ ../Core/Src/usart.c:201:3
	bl	LL_USART_Init
.Ltmp56:
	.loc	8 1484 3                        @ ../Drivers/STM32F4xx_HAL_Driver/Inc\stm32f4xx_ll_usart.h:1484:3
	ldr	r0, [r4, #4]
	bic	r0, r0, #18432
	str	r0, [r4, #4]
	.loc	8 1485 3                        @ ../Drivers/STM32F4xx_HAL_Driver/Inc\stm32f4xx_ll_usart.h:1485:3
	ldr	r0, [r4, #8]
	bic	r0, r0, #42
	str	r0, [r4, #8]
.Ltmp57:
	.loc	8 412 3                         @ ../Drivers/STM32F4xx_HAL_Driver/Inc\stm32f4xx_ll_usart.h:412:3
	ldr	r0, [r4]
	orr	r0, r0, #8192
	str	r0, [r4]
.Ltmp58:
	@DEBUG_VALUE: LL_USART_Enable:USARTx <- undef
	@DEBUG_VALUE: LL_USART_ConfigAsyncMode:USARTx <- undef
	@DEBUG_VALUE: LL_DMA_DisableFifoMode:DMAx <- undef
	@DEBUG_VALUE: LL_DMA_SetMemorySize:DMAx <- undef
	@DEBUG_VALUE: LL_DMA_SetPeriphSize:DMAx <- undef
	@DEBUG_VALUE: LL_DMA_SetMemoryIncMode:DMAx <- undef
	@DEBUG_VALUE: LL_DMA_SetPeriphIncMode:DMAx <- undef
	@DEBUG_VALUE: LL_DMA_SetMode:DMAx <- undef
	@DEBUG_VALUE: LL_DMA_SetStreamPriorityLevel:DMAx <- undef
	@DEBUG_VALUE: LL_DMA_SetDataTransferDirection:DMAx <- undef
	@DEBUG_VALUE: LL_DMA_SetChannelSelection:DMAx <- undef
	.loc	6 208 1                         @ ../Core/Src/usart.c:208:1
	add	sp, #56
	pop	{r4, r5, r6, pc}
.Ltmp59:
.Lfunc_end1:
	.size	MX_USART2_UART_Init, .Lfunc_end1-MX_USART2_UART_Init
	.cfi_endproc
	.cantunwind
	.fnend
                                        @ -- End function
	.file	9 "f:\\OwnProject\\CubeMX\\stm32f407_ll_usart_dma\\MDK-ARM" "../Drivers/STM32F4xx_HAL_Driver/Inc\\stm32f4xx_ll_gpio.h"
	.section	".note.GNU-stack","",%progbits
	.eabi_attribute	30, 2	@ Tag_ABI_optimization_goals
	.ARM_attribute	16, 1	@ Tag_AV_eba