	.text
	.syntax unified
	.eabi_attribute	67, "2.09"	@ Tag_conformance
	.cpu	cortex-m4
	.eabi_attribute	6, 13	@ Tag_CPU_arch
	.eabi_attribute	7, 77	@ Tag_CPU_arch_profile
	.eabi_attribute	8, 0	@ Tag_ARM_ISA_use
	.eabi_attribute	9, 2	@ Tag_THUMB_ISA_use
	.fpu	fpv4-sp-d16
	.eabi_attribute	27, 1	@ Tag_ABI_HardFP_use
	.eabi_attribute	36, 1	@ Tag_FP_HP_extension
	.eabi_attribute	34, 1	@ Tag_CPU_unaligned_access
	.eabi_attribute	17, 1	@ Tag_ABI_PCS_GOT_use
	.eabi_attribute	20, 2	@ Tag_ABI_FP_denormal
	.eabi_attribute	21, 0	@ Tag_ABI_FP_exceptions
	.eabi_attribute	23, 1	@ Tag_ABI_FP_number_model
	.eabi_attribute	24, 1	@ Tag_ABI_align_needed
	.eabi_attribute	25, 1	@ Tag_ABI_align_preserved
	.eabi_attribute	28, 1	@ Tag_ABI_VFP_args
	.eabi_attribute	38, 1	@ Tag_ABI_FP_16bit_format
	.eabi_attribute	18, 2	@ Tag_ABI_PCS_wchar_t
	.eabi_attribute	26, 1	@ Tag_ABI_enum_size
	.eabi_attribute	14, 0	@ Tag_ABI_PCS_R9_use
	.file	"main.c"
	.file	1 "f:\\OwnProject\\CubeMX\\stm32f407_ll_usart_dma\\MDK-ARM" "../User/BSP\\dev_usart.h"
	.file	2 "D:\\ProgramFiles\\KEIL\\ARM\\ARMCLANG\\Bin\\..\\include" "stdint.h"
	.file	3 "f:\\OwnProject\\CubeMX\\stm32f407_ll_usart_dma\\MDK-ARM" "../Drivers/CMSIS/Device/ST/STM32F4xx/Include\\stm32f407xx.h"
	.file	4 "f:\\OwnProject\\CubeMX\\stm32f407_ll_usart_dma\\MDK-ARM" "../Drivers/CMSIS/Include\\core_cm4.h"
	.section	.text.main,"ax",%progbits
	.hidden	main                            @ -- Begin function main
	.globl	main
	.p2align	2
	.type	main,%function
	.code	16                              @ @main
	.thumb_func
main:
.Lfunc_begin0:
	.file	5 "f:\\OwnProject\\CubeMX\\stm32f407_ll_usart_dma\\MDK-ARM" "../Core/Src/main.c"
	.loc	5 66 0                          @ ../Core/Src/main.c:66:0
	.fnstart
	.cfi_sections .debug_frame
	.cfi_startproc
@ %bb.0:
	.pad	#16
	sub	sp, #16
	.cfi_def_cfa_offset 16
	movw	r0, #14400
	movt	r0, #16386
.Ltmp0:
	@DEBUG_VALUE: LL_APB2_GRP1_EnableClock:Periphs <- 16384
	.file	6 "f:\\OwnProject\\CubeMX\\stm32f407_ll_usart_dma\\MDK-ARM" "../Drivers/STM32F4xx_HAL_Driver/Inc\\stm32f4xx_ll_bus.h"
	.loc	6 1707 3 prologue_end           @ ../Drivers/STM32F4xx_HAL_Driver/Inc\stm32f4xx_ll_bus.h:1707:3
	ldr	r1, [r0, #4]
	movw	r2, #63743
	orr	r1, r1, #16384
	str	r1, [r0, #4]
	.loc	6 1709 12                       @ ../Drivers/STM32F4xx_HAL_Driver/Inc\stm32f4xx_ll_bus.h:1709:12
	ldr	r1, [r0, #4]
	and	r1, r1, #16384
	.loc	6 1709 10 is_stmt 0             @ ../Drivers/STM32F4xx_HAL_Driver/Inc\stm32f4xx_ll_bus.h:1709:10
	str	r1, [sp, #8]
	.loc	6 1710 9 is_stmt 1              @ ../Drivers/STM32F4xx_HAL_Driver/Inc\stm32f4xx_ll_bus.h:1710:9
	ldr	r1, [sp, #8]
.Ltmp1:
	@DEBUG_VALUE: LL_APB1_GRP1_EnableClock:Periphs <- 268435456
	.loc	6 1188 3                        @ ../Drivers/STM32F4xx_HAL_Driver/Inc\stm32f4xx_ll_bus.h:1188:3
	ldr	r1, [r0]
	orr	r1, r1, #268435456
	str	r1, [r0]
	.loc	6 1190 12                       @ ../Drivers/STM32F4xx_HAL_Driver/Inc\stm32f4xx_ll_bus.h:1190:12
	ldr	r0, [r0]
	and	r0, r0, #268435456
	.loc	6 1190 10 is_stmt 0             @ ../Drivers/STM32F4xx_HAL_Driver/Inc\stm32f4xx_ll_bus.h:1190:10
	str	r0, [sp, #12]
	.loc	6 1191 9 is_stmt 1              @ ../Drivers/STM32F4xx_HAL_Driver/Inc\stm32f4xx_ll_bus.h:1191:9
	ldr	r0, [sp, #12]
	movw	r0, #60684
	movt	r0, #57344
.Ltmp2:
	@DEBUG_VALUE: __NVIC_SetPriorityGrouping:PriorityGroupTmp <- 5
	@DEBUG_VALUE: __NVIC_SetPriorityGrouping:PriorityGroup <- 5
	.loc	4 1662 22                       @ ../Drivers/CMSIS/Include\core_cm4.h:1662:22
	ldr	r1, [r0]
.Ltmp3:
	@DEBUG_VALUE: __NVIC_SetPriorityGrouping:reg_value <- $r1
	.loc	4 1663 13                       @ ../Drivers/CMSIS/Include\core_cm4.h:1663:13
	ands	r1, r2
.Ltmp4:
	@DEBUG_VALUE: __NVIC_SetPriorityGrouping:reg_value <- $r1
	.loc	4 1665 62                       @ ../Drivers/CMSIS/Include\core_cm4.h:1665:62
	orr	r1, r1, #83887360
.Ltmp5:
	orr	r1, r1, #16384000
.Ltmp6:
	@DEBUG_VALUE: __NVIC_SetPriorityGrouping:reg_value <- $r1
	.loc	4 1667 14                       @ ../Drivers/CMSIS/Include\core_cm4.h:1667:14
	str	r1, [r0]
.Ltmp7:
	.loc	5 85 3                          @ ../Core/Src/main.c:85:3
	bl	SystemClock_Config
.Ltmp8:
	.loc	5 92 3                          @ ../Core/Src/main.c:92:3
	bl	MX_GPIO_Init
.Ltmp9:
	.loc	5 98 3                          @ ../Core/Src/main.c:98:3
	movs	r0, #0
	bl	usart_device_init
.Ltmp10:
	.loc	5 99 3                          @ ../Core/Src/main.c:99:3
	movs	r0, #1
	bl	usart_device_init
.Ltmp11:
	.loc	5 0 3 is_stmt 0                 @ ../Core/Src/main.c:0:3
	add.w	r4, sp, #7
	b	.LBB0_2
.Ltmp12:
	.p2align	2
.LBB0_1:                                @   in Loop: Header=BB0_2 Depth=1
	@DEBUG_VALUE: recv_tmp <- [DW_OP_plus_uconst 7, DW_OP_deref] $sp
	.loc	5 113 5 is_stmt 1               @ ../Core/Src/main.c:113:5
	movs	r0, #0
	bl	usart_dmatx_poll
.Ltmp13:
.LBB0_2:                                @ =>This Inner Loop Header: Depth=1
	@DEBUG_VALUE: recv_tmp <- [DW_OP_plus_uconst 7, DW_OP_deref] $sp
	.loc	5 107 9                         @ ../Core/Src/main.c:107:9
	movs	r0, #0
	mov	r1, r4
	movs	r2, #1
	bl	usart_read
.Ltmp14:
	.loc	5 107 9 is_stmt 0               @ ../Core/Src/main.c:107:9
	cmp	r0, #0
	beq	.LBB0_1
.Ltmp15:
@ %bb.3:                                @   in Loop: Header=BB0_2 Depth=1
	@DEBUG_VALUE: recv_tmp <- [DW_OP_plus_uconst 7, DW_OP_deref] $sp
	@DEBUG_VALUE: recv_tmp <- [DW_OP_plus_uconst 7, DW_OP_deref] $sp
	.loc	5 108 7 is_stmt 1               @ ../Core/Src/main.c:108:7
	movs	r0, #0
	mov	r1, r4
	movs	r2, #1
	bl	usart_write
.Ltmp16:
	.loc	5 0 7 is_stmt 0                 @ ../Core/Src/main.c:0:7
	b	.LBB0_1
.Ltmp17:
.Lfunc_end0:
	.size	main, .Lfunc_end0-main
	.cfi_endproc
	.cantunwind
	.fnend
                                        @ -- End function
	.section	.text.SystemClock_Config,"ax",%progbits
	.hidden	SystemClock_Config              @ -- Begin function SystemClock_Config
	.globl	SystemClock_Config
	.p2align	2
	.type	SystemClock_Config,%function
	.code	16                              @ @SystemClock_Config
	.thumb_func
SystemClock_Config:
.Lfunc_begin1:
	.loc	5 123 0 is_stmt 1               @ ../Core/Src/main.c:123:0
	.fnstart
	.cfi_startproc
@ %bb.0:
	.save	{r4, lr}
	push	{r4, lr}
	.cfi_def_cfa_offset 8
	.cfi_offset lr, -4
	.cfi_offset r4, -8
	movw	r0, #14336
	movt	r0, #16386
.Ltmp18:
	@DEBUG_VALUE: LL_FLASH_SetLatency:Latency <- 5
	.file	7 "f:\\OwnProject\\CubeMX\\stm32f407_ll_usart_dma\\MDK-ARM" "../Drivers/STM32F4xx_HAL_Driver/Inc\\stm32f4xx_ll_system.h"
	.loc	7 1545 3 prologue_end           @ ../Drivers/STM32F4xx_HAL_Driver/Inc\stm32f4xx_ll_system.h:1545:3
	ldr.w	r1, [r0, #1024]
	movs	r2, #5
	bfi	r1, r2, #0, #3
	str.w	r1, [r0, #1024]
.Ltmp19:
	.p2align	2
.LBB1_1:                                @ =>This Inner Loop Header: Depth=1
	.loc	7 1571 21                       @ ../Drivers/STM32F4xx_HAL_Driver/Inc\stm32f4xx_ll_system.h:1571:21
	ldr.w	r1, [r0, #1024]
	and	r1, r1, #7
.Ltmp20:
	.loc	5 125 3                         @ ../Core/Src/main.c:125:3
	cmp	r1, #5
	beq	.LBB1_5
@ %bb.2:                                @   in Loop: Header=BB1_1 Depth=1
.Ltmp21:
	.loc	7 1571 21                       @ ../Drivers/STM32F4xx_HAL_Driver/Inc\stm32f4xx_ll_system.h:1571:21
	ldr.w	r1, [r0, #1024]
	and	r1, r1, #7
.Ltmp22:
	.loc	5 125 3                         @ ../Core/Src/main.c:125:3
	cmp	r1, #5
	beq	.LBB1_5
@ %bb.3:                                @   in Loop: Header=BB1_1 Depth=1
.Ltmp23:
	.loc	7 1571 21                       @ ../Drivers/STM32F4xx_HAL_Driver/Inc\stm32f4xx_ll_system.h:1571:21
	ldr.w	r1, [r0, #1024]
	and	r1, r1, #7
.Ltmp24:
	.loc	5 125 3                         @ ../Core/Src/main.c:125:3
	cmp	r1, #5
	beq	.LBB1_5
@ %bb.4:                                @   in Loop: Header=BB1_1 Depth=1
.Ltmp25:
	.loc	7 1571 21                       @ ../Drivers/STM32F4xx_HAL_Driver/Inc\stm32f4xx_ll_system.h:1571:21
	ldr.w	r1, [r0, #1024]
	and	r1, r1, #7
.Ltmp26:
	.loc	5 125 3                         @ ../Core/Src/main.c:125:3
	cmp	r1, #5
	bne	.LBB1_1
.LBB1_5:
	.loc	5 0 3 is_stmt 0                 @ ../Core/Src/main.c:0:3
	movw	r1, #28672
	movt	r1, #16384
.Ltmp27:
	@DEBUG_VALUE: LL_PWR_SetRegulVoltageScaling:VoltageScaling <- 16384
	.file	8 "f:\\OwnProject\\CubeMX\\stm32f407_ll_usart_dma\\MDK-ARM" "../Drivers/STM32F4xx_HAL_Driver/Inc\\stm32f4xx_ll_pwr.h"
	.loc	8 507 3 is_stmt 1               @ ../Drivers/STM32F4xx_HAL_Driver/Inc\stm32f4xx_ll_pwr.h:507:3
	ldr	r2, [r1]
	orr	r2, r2, #16384
	str	r2, [r1]
.Ltmp28:
	.file	9 "f:\\OwnProject\\CubeMX\\stm32f407_ll_usart_dma\\MDK-ARM" "../Drivers/STM32F4xx_HAL_Driver/Inc\\stm32f4xx_ll_rcc.h"
	.loc	9 2951 3                        @ ../Drivers/STM32F4xx_HAL_Driver/Inc\stm32f4xx_ll_rcc.h:2951:3
	ldr	r1, [r0]
	orr	r1, r1, #65536
	str	r1, [r0]
.Ltmp29:
.LBB1_6:                                @ =>This Inner Loop Header: Depth=1
	.loc	9 2971 11                       @ ../Drivers/STM32F4xx_HAL_Driver/Inc\stm32f4xx_ll_rcc.h:2971:11
	ldr	r1, [r0]
.Ltmp30:
	.loc	5 132 3                         @ ../Core/Src/main.c:132:3
	lsls	r1, r1, #14
	bmi	.LBB1_9
@ %bb.7:                                @   in Loop: Header=BB1_6 Depth=1
.Ltmp31:
	.loc	9 2971 11                       @ ../Drivers/STM32F4xx_HAL_Driver/Inc\stm32f4xx_ll_rcc.h:2971:11
	ldr	r1, [r0]
.Ltmp32:
	.loc	5 132 3                         @ ../Core/Src/main.c:132:3
	lsls	r1, r1, #14
.Ltmp33:
	.loc	9 2971 11                       @ ../Drivers/STM32F4xx_HAL_Driver/Inc\stm32f4xx_ll_rcc.h:2971:11
	itt	pl
	ldrpl	r1, [r0]
.Ltmp34:
	.loc	5 132 3                         @ ../Core/Src/main.c:132:3
	lslspl.w	r1, r1, #14
	bmi	.LBB1_9
@ %bb.8:                                @   in Loop: Header=BB1_6 Depth=1
.Ltmp35:
	.loc	9 2971 11                       @ ../Drivers/STM32F4xx_HAL_Driver/Inc\stm32f4xx_ll_rcc.h:2971:11
	ldr	r1, [r0]
.Ltmp36:
	.loc	5 132 3                         @ ../Core/Src/main.c:132:3
	lsls	r1, r1, #14
	bpl	.LBB1_6
.LBB1_9:
.Ltmp37:
	.loc	9 2921 3                        @ ../Drivers/STM32F4xx_HAL_Driver/Inc\stm32f4xx_ll_rcc.h:2921:3
	ldr	r1, [r0]
	movw	r2, #32768
	orr	r1, r1, #524288
	str	r1, [r0]
.Ltmp38:
	@DEBUG_VALUE: LL_RCC_PLL_ConfigDomain_SYS:PLLP_R <- 0
	@DEBUG_VALUE: LL_RCC_PLL_ConfigDomain_SYS:PLLN <- 336
	@DEBUG_VALUE: LL_RCC_PLL_ConfigDomain_SYS:PLLM <- 8
	@DEBUG_VALUE: LL_RCC_PLL_ConfigDomain_SYS:Source <- 4194304
	.loc	9 4306 3                        @ ../Drivers/STM32F4xx_HAL_Driver/Inc\stm32f4xx_ll_rcc.h:4306:3
	ldr	r1, [r0, #4]
	movt	r2, #65471
	ands	r1, r2
	movw	r2, #21512
	movt	r2, #64
	orrs	r1, r2
	str	r1, [r0, #4]
	.loc	9 4308 3                        @ ../Drivers/STM32F4xx_HAL_Driver/Inc\stm32f4xx_ll_rcc.h:4308:3
	ldr	r1, [r0, #4]
	bic	r1, r1, #196608
	str	r1, [r0, #4]
.Ltmp39:
	.loc	9 4186 3                        @ ../Drivers/STM32F4xx_HAL_Driver/Inc\stm32f4xx_ll_rcc.h:4186:3
	ldr	r1, [r0]
	orr	r1, r1, #16777216
	str	r1, [r0]
.Ltmp40:
.LBB1_10:                               @ =>This Inner Loop Header: Depth=1
	.loc	9 4207 11                       @ ../Drivers/STM32F4xx_HAL_Driver/Inc\stm32f4xx_ll_rcc.h:4207:11
	ldr	r1, [r0]
.Ltmp41:
	.loc	5 141 3                         @ ../Core/Src/main.c:141:3
	lsls	r1, r1, #6
	bmi	.LBB1_13
@ %bb.11:                               @   in Loop: Header=BB1_10 Depth=1
.Ltmp42:
	.loc	9 4207 11                       @ ../Drivers/STM32F4xx_HAL_Driver/Inc\stm32f4xx_ll_rcc.h:4207:11
	ldr	r1, [r0]
.Ltmp43:
	.loc	5 141 3                         @ ../Core/Src/main.c:141:3
	lsls	r1, r1, #6
.Ltmp44:
	.loc	9 4207 11                       @ ../Drivers/STM32F4xx_HAL_Driver/Inc\stm32f4xx_ll_rcc.h:4207:11
	itt	pl
	ldrpl	r1, [r0]
.Ltmp45:
	.loc	5 141 3                         @ ../Core/Src/main.c:141:3
	lslspl.w	r1, r1, #6
	bmi	.LBB1_13
@ %bb.12:                               @   in Loop: Header=BB1_10 Depth=1
.Ltmp46:
	.loc	9 4207 11                       @ ../Drivers/STM32F4xx_HAL_Driver/Inc\stm32f4xx_ll_rcc.h:4207:11
	ldr	r1, [r0]
.Ltmp47:
	.loc	5 141 3                         @ ../Core/Src/main.c:141:3
	lsls	r1, r1, #6
	bpl	.LBB1_10
.LBB1_13:
.Ltmp48:
	@DEBUG_VALUE: LL_RCC_SetAHBPrescaler:Prescaler <- 0
	.loc	9 3226 3                        @ ../Drivers/STM32F4xx_HAL_Driver/Inc\stm32f4xx_ll_rcc.h:3226:3
	ldr	r1, [r0, #8]
	movs	r2, #5
	bic	r1, r1, #240
	str	r1, [r0, #8]
.Ltmp49:
	@DEBUG_VALUE: LL_RCC_SetAPB1Prescaler:Prescaler <- 5120
	.loc	9 3242 3                        @ ../Drivers/STM32F4xx_HAL_Driver/Inc\stm32f4xx_ll_rcc.h:3242:3
	ldr	r1, [r0, #8]
	bfi	r1, r2, #10, #3
	str	r1, [r0, #8]
.Ltmp50:
	@DEBUG_VALUE: LL_RCC_SetAPB2Prescaler:Prescaler <- 32768
	.loc	9 3258 3                        @ ../Drivers/STM32F4xx_HAL_Driver/Inc\stm32f4xx_ll_rcc.h:3258:3
	ldr	r1, [r0, #8]
	movs	r2, #4
	bfi	r1, r2, #13, #3
	str	r1, [r0, #8]
.Ltmp51:
	@DEBUG_VALUE: LL_RCC_SetSysClkSource:Source <- 2
	.loc	9 3190 3                        @ ../Drivers/STM32F4xx_HAL_Driver/Inc\stm32f4xx_ll_rcc.h:3190:3
	ldr	r1, [r0, #8]
	movs	r2, #2
	bfi	r1, r2, #0, #2
	str	r1, [r0, #8]
.Ltmp52:
	.p2align	2
.LBB1_14:                               @ =>This Inner Loop Header: Depth=1
	.loc	9 3206 21                       @ ../Drivers/STM32F4xx_HAL_Driver/Inc\stm32f4xx_ll_rcc.h:3206:21
	ldr	r1, [r0, #8]
	and	r1, r1, #12
.Ltmp53:
	.loc	5 151 3                         @ ../Core/Src/main.c:151:3
	cmp	r1, #8
	beq	.LBB1_18
@ %bb.15:                               @   in Loop: Header=BB1_14 Depth=1
.Ltmp54:
	.loc	9 3206 21                       @ ../Drivers/STM32F4xx_HAL_Driver/Inc\stm32f4xx_ll_rcc.h:3206:21
	ldr	r1, [r0, #8]
	and	r1, r1, #12
.Ltmp55:
	.loc	5 151 3                         @ ../Core/Src/main.c:151:3
	cmp	r1, #8
	beq	.LBB1_18
@ %bb.16:                               @   in Loop: Header=BB1_14 Depth=1
.Ltmp56:
	.loc	9 3206 21                       @ ../Drivers/STM32F4xx_HAL_Driver/Inc\stm32f4xx_ll_rcc.h:3206:21
	ldr	r1, [r0, #8]
	and	r1, r1, #12
.Ltmp57:
	.loc	5 151 3                         @ ../Core/Src/main.c:151:3
	cmp	r1, #8
	beq	.LBB1_18
@ %bb.17:                               @   in Loop: Header=BB1_14 Depth=1
.Ltmp58:
	.loc	9 3206 21                       @ ../Drivers/STM32F4xx_HAL_Driver/Inc\stm32f4xx_ll_rcc.h:3206:21
	ldr	r1, [r0, #8]
	and	r1, r1, #12
.Ltmp59:
	.loc	5 151 3                         @ ../Core/Src/main.c:151:3
	cmp	r1, #8
	bne	.LBB1_14
.LBB1_18:
	.loc	5 0 3 is_stmt 0                 @ ../Core/Src/main.c:0:3
	movw	r4, #31232
	movt	r4, #2563
	.loc	5 155 3 is_stmt 1               @ ../Core/Src/main.c:155:3
	mov	r0, r4
	bl	LL_Init1msTick
.Ltmp60:
	.loc	5 156 3                         @ ../Core/Src/main.c:156:3
	mov	r0, r4
	pop.w	{r4, lr}
.Ltmp61:
	b	LL_SetSystemCoreClock
.Ltmp62:
.Lfunc_end1:
	.size	SystemClock_Config, .Lfunc_end1-SystemClock_Config
	.cfi_endproc
	.file	10 "f:\\OwnProject\\CubeMX\\stm32f407_ll_usart_dma\\MDK-ARM" "../Drivers/STM32F4xx_HAL_Driver/Inc\\stm32f4xx_ll_utils.h"
	.cantunwind
	.fnend
                                        @ -- End function
	.section	.text.Error_Handler,"ax",%progbits
	.hidden	Error_Handler                   @ -- Begin function Error_Handler
	.globl	Error_Handler
	.p2align	2
	.type	Error_Handler,%function
	.code	16                              @ @Error_Handler
	.thumb_func
Error_Handler:
.Lfunc_begin2:
	.loc	5 168 0                         @ ../Core/Src/main.c:168:0
	.fnstart
	.cfi_startproc
@ %bb.0:
	.loc	5 171 3 prologue_end            @ ../Core/Src/main.c:171:3
	@APP
	mrs	r0, primask
	cpsid i

	@NO_APP
	.p2align	2
.LBB2_1:                                @ =>This Inner Loop Header: Depth=1
	.loc	5 172 3                         @ ../Core/Src/main.c:172:3
	b	.LBB2_1
.Ltmp63:
.Lfunc_end2:
	.size	Error_Handler, .Lfunc_end2-Error_Handler
	.cfi_endproc
	.cantunwind
	.fnend
                                        @ -- End function
	.section	.text.assert_failed,"ax",%progbits
	.hidden	assert_failed                   @ -- Begin function assert_failed
	.globl	assert_failed
	.p2align	2
	.type	assert_failed,%function
	.code	16                              @ @assert_failed
	.thumb_func
assert_failed:
.Lfunc_begin3:
	.loc	5 187 0                         @ ../Core/Src/main.c:187:0
	.fnstart
	.cfi_startproc
@ %bb.0:
	@DEBUG_VALUE: assert_failed:file <- $r0
	@DEBUG_VALUE: assert_failed:line <- $r1
	.loc	5 192 1 prologue_end            @ ../Core/Src/main.c:192:1
	bx	lr
.Ltmp64:
.Lfunc_end3:
	.size	assert_failed, .Lfunc_end3-assert_failed
	.cfi_endproc
	.cantunwind
	.fnend
                                        @ -- End function
	.type	__ARM_use_no_argv,%object       @ @__ARM_use_no_argv
	.section	.ARM.use_no_argv,"awR",%progbits,unique,1
	.globl	__ARM_use_no_argv
	.p2align	2
__ARM_use_no_argv:
	.long	1                               @ 0x1
	.size	__ARM_use_no_argv, 4

	.section	".note.GNU-stack","",%progbits
	.eabi_attribute	30, 2	@ Tag_ABI_optimization_goals
	.ARM_attribute	16, 1	@ Tag_AV_eba