	.text
	.syntax unified
	.eabi_attribute	67, "2.09"	@ Tag_conformance
	.cpu	cortex-m4
	.eabi_attribute	6, 13	@ Tag_CPU_arch
	.eabi_attribute	7, 77	@ Tag_CPU_arch_profile
	.eabi_attribute	8, 0	@ Tag_ARM_ISA_use
	.eabi_attribute	9, 2	@ Tag_THUMB_ISA_use
	.fpu	fpv4-sp-d16
	.eabi_attribute	27, 1	@ Tag_ABI_HardFP_use
	.eabi_attribute	36, 1	@ Tag_FP_HP_extension
	.eabi_attribute	34, 1	@ Tag_CPU_unaligned_access
	.eabi_attribute	17, 1	@ Tag_ABI_PCS_GOT_use
	.eabi_attribute	20, 2	@ Tag_ABI_FP_denormal
	.eabi_attribute	21, 0	@ Tag_ABI_FP_exceptions
	.eabi_attribute	23, 1	@ Tag_ABI_FP_number_model
	.eabi_attribute	24, 1	@ Tag_ABI_align_needed
	.eabi_attribute	25, 1	@ Tag_ABI_align_preserved
	.eabi_attribute	28, 1	@ Tag_ABI_VFP_args
	.eabi_attribute	38, 1	@ Tag_ABI_FP_16bit_format
	.eabi_attribute	18, 2	@ Tag_ABI_PCS_wchar_t
	.eabi_attribute	26, 1	@ Tag_ABI_enum_size
	.eabi_attribute	14, 0	@ Tag_ABI_PCS_R9_use
	.file	"stm32f4xx_ll_gpio.c"
	.file	1 "f:\\OwnProject\\CubeMX\\stm32f407_ll_usart_dma\\MDK-ARM" "../Drivers/CMSIS/Device/ST/STM32F4xx/Include\\stm32f4xx.h"
	.file	2 "D:\\ProgramFiles\\KEIL\\ARM\\ARMCLANG\\Bin\\..\\include" "stdint.h"
	.file	3 "f:\\OwnProject\\CubeMX\\stm32f407_ll_usart_dma\\MDK-ARM" "../Drivers/CMSIS/Device/ST/STM32F4xx/Include/stm32f407xx.h"
	.section	.text.LL_GPIO_DeInit,"ax",%progbits
	.hidden	LL_GPIO_DeInit                  @ -- Begin function LL_GPIO_DeInit
	.globl	LL_GPIO_DeInit
	.p2align	2
	.type	LL_GPIO_DeInit,%function
	.code	16                              @ @LL_GPIO_DeInit
	.thumb_func
LL_GPIO_DeInit:
.Lfunc_begin0:
	.file	4 "f:\\OwnProject\\CubeMX\\stm32f407_ll_usart_dma\\MDK-ARM" "../Drivers/STM32F4xx_HAL_Driver/Src/stm32f4xx_ll_gpio.c"
	.loc	4 104 0                         @ ../Drivers/STM32F4xx_HAL_Driver/Src/stm32f4xx_ll_gpio.c:104:0
	.fnstart
	.cfi_sections .debug_frame
	.cfi_startproc
@ %bb.0:
	@DEBUG_VALUE: LL_GPIO_DeInit:GPIOx <- $r0
	.save	{r7, lr}
	push	{r7, lr}
	.cfi_def_cfa_offset 8
	.cfi_offset lr, -4
	.cfi_offset r7, -8
.Ltmp0:
	@DEBUG_VALUE: LL_GPIO_DeInit:status <- 0
	.loc	4 108 3 prologue_end            @ ../Drivers/STM32F4xx_HAL_Driver/Src/stm32f4xx_ll_gpio.c:108:3
	add.w	r0, r0, #3187671040
.Ltmp1:
	@DEBUG_VALUE: LL_GPIO_DeInit:GPIOx <- [DW_OP_LLVM_entry_value 1] $r0
	add.w	r0, r0, #33423360
	ror.w	r0, r0, #10
	cmp	r0, #8
	bhi	.LBB0_4
.Ltmp2:
@ %bb.1:
	@DEBUG_VALUE: LL_GPIO_DeInit:GPIOx <- [DW_OP_LLVM_entry_value 1] $r0
	@DEBUG_VALUE: LL_GPIO_DeInit:status <- 0
	.loc	4 0 3 is_stmt 0                 @ ../Drivers/STM32F4xx_HAL_Driver/Src/stm32f4xx_ll_gpio.c:0:3
.LCPI0_0:
	tbb	[pc, r0]
.Ltmp3:
@ %bb.2:
.LJTI0_0:
	.byte	(.LBB0_3-(.LCPI0_0+4))/2
	.byte	(.LBB0_5-(.LCPI0_0+4))/2
	.byte	(.LBB0_6-(.LCPI0_0+4))/2
	.byte	(.LBB0_7-(.LCPI0_0+4))/2
	.byte	(.LBB0_8-(.LCPI0_0+4))/2
	.byte	(.LBB0_9-(.LCPI0_0+4))/2
	.byte	(.LBB0_10-(.LCPI0_0+4))/2
	.byte	(.LBB0_11-(.LCPI0_0+4))/2
	.byte	(.LBB0_12-(.LCPI0_0+4))/2
	.p2align	1
	.p2align	2
.LBB0_3:
.Ltmp4:
	@DEBUG_VALUE: LL_GPIO_DeInit:GPIOx <- [DW_OP_LLVM_entry_value 1] $r0
	@DEBUG_VALUE: LL_GPIO_DeInit:status <- 0
	movw	r0, #14352
	movt	r0, #16386
.Ltmp5:
	@DEBUG_VALUE: LL_AHB1_GRP1_ForceReset:Periphs <- 1
	.file	5 "f:\\OwnProject\\CubeMX\\stm32f407_ll_usart_dma\\MDK-ARM" "../Drivers/STM32F4xx_HAL_Driver/Inc\\stm32f4xx_ll_bus.h"
	.loc	5 584 3 is_stmt 1               @ ../Drivers/STM32F4xx_HAL_Driver/Inc\stm32f4xx_ll_bus.h:584:3
	ldr	r1, [r0]
	orr	r1, r1, #1
	str	r1, [r0]
.Ltmp6:
	@DEBUG_VALUE: LL_AHB1_GRP1_ReleaseReset:Periphs <- 1
	.loc	5 633 3                         @ ../Drivers/STM32F4xx_HAL_Driver/Inc\stm32f4xx_ll_bus.h:633:3
	ldr	r1, [r0]
	bic	r1, r1, #1
.Ltmp7:
	.loc	4 0 0 is_stmt 0                 @ ../Drivers/STM32F4xx_HAL_Driver/Src/stm32f4xx_ll_gpio.c:0:0
	str	r1, [r0]
	movs	r0, #0
.Ltmp8:
	@DEBUG_VALUE: LL_GPIO_DeInit:status <- $r0
	.loc	4 187 3 is_stmt 1               @ ../Drivers/STM32F4xx_HAL_Driver/Src/stm32f4xx_ll_gpio.c:187:3
	pop	{r7, pc}
.Ltmp9:
	.p2align	2
.LBB0_4:
	@DEBUG_VALUE: LL_GPIO_DeInit:GPIOx <- [DW_OP_LLVM_entry_value 1] $r0
	@DEBUG_VALUE: LL_GPIO_DeInit:status <- 0
	.loc	4 108 3                         @ ../Drivers/STM32F4xx_HAL_Driver/Src/stm32f4xx_ll_gpio.c:108:3
	movw	r0, :lower16:.L.str
	movt	r0, :upper16:.L.str
	movs	r1, #108
	bl	assert_failed
.Ltmp10:
	.loc	4 0 3 is_stmt 0                 @ ../Drivers/STM32F4xx_HAL_Driver/Src/stm32f4xx_ll_gpio.c:0:3
	movs	r0, #1
.Ltmp11:
	@DEBUG_VALUE: LL_GPIO_DeInit:status <- $r0
	.loc	4 187 3 is_stmt 1               @ ../Drivers/STM32F4xx_HAL_Driver/Src/stm32f4xx_ll_gpio.c:187:3
	pop	{r7, pc}
.Ltmp12:
	.p2align	2
.LBB0_5:
	@DEBUG_VALUE: LL_GPIO_DeInit:GPIOx <- [DW_OP_LLVM_entry_value 1] $r0
	@DEBUG_VALUE: LL_GPIO_DeInit:status <- 0
	.loc	4 0 3 is_stmt 0                 @ ../Drivers/STM32F4xx_HAL_Driver/Src/stm32f4xx_ll_gpio.c:0:3
	movw	r0, #14352
	movt	r0, #16386
.Ltmp13:
	@DEBUG_VALUE: LL_AHB1_GRP1_ForceReset:Periphs <- 2
	.loc	5 584 3 is_stmt 1               @ ../Drivers/STM32F4xx_HAL_Driver/Inc\stm32f4xx_ll_bus.h:584:3
	ldr	r1, [r0]
	orr	r1, r1, #2
	str	r1, [r0]
.Ltmp14:
	@DEBUG_VALUE: LL_AHB1_GRP1_ReleaseReset:Periphs <- 2
	.loc	5 633 3                         @ ../Drivers/STM32F4xx_HAL_Driver/Inc\stm32f4xx_ll_bus.h:633:3
	ldr	r1, [r0]
	bic	r1, r1, #2
.Ltmp15:
	.loc	4 0 0 is_stmt 0                 @ ../Drivers/STM32F4xx_HAL_Driver/Src/stm32f4xx_ll_gpio.c:0:0
	str	r1, [r0]
	movs	r0, #0
.Ltmp16:
	@DEBUG_VALUE: LL_GPIO_DeInit:status <- $r0
	.loc	4 187 3 is_stmt 1               @ ../Drivers/STM32F4xx_HAL_Driver/Src/stm32f4xx_ll_gpio.c:187:3
	pop	{r7, pc}
.Ltmp17:
	.p2align	2
.LBB0_6:
	@DEBUG_VALUE: LL_GPIO_DeInit:GPIOx <- [DW_OP_LLVM_entry_value 1] $r0
	@DEBUG_VALUE: LL_GPIO_DeInit:status <- 0
	.loc	4 0 3 is_stmt 0                 @ ../Drivers/STM32F4xx_HAL_Driver/Src/stm32f4xx_ll_gpio.c:0:3
	movw	r0, #14352
	movt	r0, #16386
.Ltmp18:
	@DEBUG_VALUE: LL_AHB1_GRP1_ForceReset:Periphs <- 4
	.loc	5 584 3 is_stmt 1               @ ../Drivers/STM32F4xx_HAL_Driver/Inc\stm32f4xx_ll_bus.h:584:3
	ldr	r1, [r0]
	orr	r1, r1, #4
	str	r1, [r0]
.Ltmp19:
	@DEBUG_VALUE: LL_AHB1_GRP1_ReleaseReset:Periphs <- 4
	.loc	5 633 3                         @ ../Drivers/STM32F4xx_HAL_Driver/Inc\stm32f4xx_ll_bus.h:633:3
	ldr	r1, [r0]
	bic	r1, r1, #4
.Ltmp20:
	.loc	4 0 0 is_stmt 0                 @ ../Drivers/STM32F4xx_HAL_Driver/Src/stm32f4xx_ll_gpio.c:0:0
	str	r1, [r0]
	movs	r0, #0
.Ltmp21:
	@DEBUG_VALUE: LL_GPIO_DeInit:status <- $r0
	.loc	4 187 3 is_stmt 1               @ ../Drivers/STM32F4xx_HAL_Driver/Src/stm32f4xx_ll_gpio.c:187:3
	pop	{r7, pc}
.Ltmp22:
	.p2align	2
.LBB0_7:
	@DEBUG_VALUE: LL_GPIO_DeInit:GPIOx <- [DW_OP_LLVM_entry_value 1] $r0
	@DEBUG_VALUE: LL_GPIO_DeInit:status <- 0
	.loc	4 0 3 is_stmt 0                 @ ../Drivers/STM32F4xx_HAL_Driver/Src/stm32f4xx_ll_gpio.c:0:3
	movw	r0, #14352
	movt	r0, #16386
.Ltmp23:
	@DEBUG_VALUE: LL_AHB1_GRP1_ForceReset:Periphs <- 8
	.loc	5 584 3 is_stmt 1               @ ../Drivers/STM32F4xx_HAL_Driver/Inc\stm32f4xx_ll_bus.h:584:3
	ldr	r1, [r0]
	orr	r1, r1, #8
	str	r1, [r0]
.Ltmp24:
	@DEBUG_VALUE: LL_AHB1_GRP1_ReleaseReset:Periphs <- 8
	.loc	5 633 3                         @ ../Drivers/STM32F4xx_HAL_Driver/Inc\stm32f4xx_ll_bus.h:633:3
	ldr	r1, [r0]
	bic	r1, r1, #8
.Ltmp25:
	.loc	4 0 0 is_stmt 0                 @ ../Drivers/STM32F4xx_HAL_Driver/Src/stm32f4xx_ll_gpio.c:0:0
	str	r1, [r0]
	movs	r0, #0
.Ltmp26:
	@DEBUG_VALUE: LL_GPIO_DeInit:status <- $r0
	.loc	4 187 3 is_stmt 1               @ ../Drivers/STM32F4xx_HAL_Driver/Src/stm32f4xx_ll_gpio.c:187:3
	pop	{r7, pc}
.Ltmp27:
	.p2align	2
.LBB0_8:
	@DEBUG_VALUE: LL_GPIO_DeInit:GPIOx <- [DW_OP_LLVM_entry_value 1] $r0
	@DEBUG_VALUE: LL_GPIO_DeInit:status <- 0
	.loc	4 0 3 is_stmt 0                 @ ../Drivers/STM32F4xx_HAL_Driver/Src/stm32f4xx_ll_gpio.c:0:3
	movw	r0, #14352
	movt	r0, #16386
.Ltmp28:
	@DEBUG_VALUE: LL_AHB1_GRP1_ForceReset:Periphs <- 16
	.loc	5 584 3 is_stmt 1               @ ../Drivers/STM32F4xx_HAL_Driver/Inc\stm32f4xx_ll_bus.h:584:3
	ldr	r1, [r0]
	orr	r1, r1, #16
	str	r1, [r0]
.Ltmp29:
	@DEBUG_VALUE: LL_AHB1_GRP1_ReleaseReset:Periphs <- 16
	.loc	5 633 3                         @ ../Drivers/STM32F4xx_HAL_Driver/Inc\stm32f4xx_ll_bus.h:633:3
	ldr	r1, [r0]
	bic	r1, r1, #16
.Ltmp30:
	.loc	4 0 0 is_stmt 0                 @ ../Drivers/STM32F4xx_HAL_Driver/Src/stm32f4xx_ll_gpio.c:0:0
	str	r1, [r0]
	movs	r0, #0
.Ltmp31:
	@DEBUG_VALUE: LL_GPIO_DeInit:status <- $r0
	.loc	4 187 3 is_stmt 1               @ ../Drivers/STM32F4xx_HAL_Driver/Src/stm32f4xx_ll_gpio.c:187:3
	pop	{r7, pc}
.Ltmp32:
	.p2align	2
.LBB0_9:
	@DEBUG_VALUE: LL_GPIO_DeInit:GPIOx <- [DW_OP_LLVM_entry_value 1] $r0
	@DEBUG_VALUE: LL_GPIO_DeInit:status <- 0
	.loc	4 0 3 is_stmt 0                 @ ../Drivers/STM32F4xx_HAL_Driver/Src/stm32f4xx_ll_gpio.c:0:3
	movw	r0, #14352
	movt	r0, #16386
.Ltmp33:
	@DEBUG_VALUE: LL_AHB1_GRP1_ForceReset:Periphs <- 32
	.loc	5 584 3 is_stmt 1               @ ../Drivers/STM32F4xx_HAL_Driver/Inc\stm32f4xx_ll_bus.h:584:3
	ldr	r1, [r0]
	orr	r1, r1, #32
	str	r1, [r0]
.Ltmp34:
	@DEBUG_VALUE: LL_AHB1_GRP1_ReleaseReset:Periphs <- 32
	.loc	5 633 3                         @ ../Drivers/STM32F4xx_HAL_Driver/Inc\stm32f4xx_ll_bus.h:633:3
	ldr	r1, [r0]
	bic	r1, r1, #32
.Ltmp35:
	.loc	4 0 0 is_stmt 0                 @ ../Drivers/STM32F4xx_HAL_Driver/Src/stm32f4xx_ll_gpio.c:0:0
	str	r1, [r0]
	movs	r0, #0
.Ltmp36:
	@DEBUG_VALUE: LL_GPIO_DeInit:status <- $r0
	.loc	4 187 3 is_stmt 1               @ ../Drivers/STM32F4xx_HAL_Driver/Src/stm32f4xx_ll_gpio.c:187:3
	pop	{r7, pc}
.Ltmp37:
	.p2align	2
.LBB0_10:
	@DEBUG_VALUE: LL_GPIO_DeInit:GPIOx <- [DW_OP_LLVM_entry_value 1] $r0
	@DEBUG_VALUE: LL_GPIO_DeInit:status <- 0
	.loc	4 0 3 is_stmt 0                 @ ../Drivers/STM32F4xx_HAL_Driver/Src/stm32f4xx_ll_gpio.c:0:3
	movw	r0, #14352
	movt	r0, #16386
.Ltmp38:
	@DEBUG_VALUE: LL_AHB1_GRP1_ForceReset:Periphs <- 64
	.loc	5 584 3 is_stmt 1               @ ../Drivers/STM32F4xx_HAL_Driver/Inc\stm32f4xx_ll_bus.h:584:3
	ldr	r1, [r0]
	orr	r1, r1, #64
	str	r1, [r0]
.Ltmp39:
	@DEBUG_VALUE: LL_AHB1_GRP1_ReleaseReset:Periphs <- 64
	.loc	5 633 3                         @ ../Drivers/STM32F4xx_HAL_Driver/Inc\stm32f4xx_ll_bus.h:633:3
	ldr	r1, [r0]
	bic	r1, r1, #64
.Ltmp40:
	.loc	4 0 0 is_stmt 0                 @ ../Drivers/STM32F4xx_HAL_Driver/Src/stm32f4xx_ll_gpio.c:0:0
	str	r1, [r0]
	movs	r0, #0
.Ltmp41:
	@DEBUG_VALUE: LL_GPIO_DeInit:status <- $r0
	.loc	4 187 3 is_stmt 1               @ ../Drivers/STM32F4xx_HAL_Driver/Src/stm32f4xx_ll_gpio.c:187:3
	pop	{r7, pc}
.Ltmp42:
	.p2align	2
.LBB0_11:
	@DEBUG_VALUE: LL_GPIO_DeInit:GPIOx <- [DW_OP_LLVM_entry_value 1] $r0
	@DEBUG_VALUE: LL_GPIO_DeInit:status <- 0
	.loc	4 0 3 is_stmt 0                 @ ../Drivers/STM32F4xx_HAL_Driver/Src/stm32f4xx_ll_gpio.c:0:3
	movw	r0, #14352
	movt	r0, #16386
.Ltmp43:
	@DEBUG_VALUE: LL_AHB1_GRP1_ForceReset:Periphs <- 128
	.loc	5 584 3 is_stmt 1               @ ../Drivers/STM32F4xx_HAL_Driver/Inc\stm32f4xx_ll_bus.h:584:3
	ldr	r1, [r0]
	orr	r1, r1, #128
	str	r1, [r0]
.Ltmp44:
	@DEBUG_VALUE: LL_AHB1_GRP1_ReleaseReset:Periphs <- 128
	.loc	5 633 3                         @ ../Drivers/STM32F4xx_HAL_Driver/Inc\stm32f4xx_ll_bus.h:633:3
	ldr	r1, [r0]
	bic	r1, r1, #128
.Ltmp45:
	.loc	4 0 0 is_stmt 0                 @ ../Drivers/STM32F4xx_HAL_Driver/Src/stm32f4xx_ll_gpio.c:0:0
	str	r1, [r0]
	movs	r0, #0
.Ltmp46:
	@DEBUG_VALUE: LL_GPIO_DeInit:status <- $r0
	.loc	4 187 3 is_stmt 1               @ ../Drivers/STM32F4xx_HAL_Driver/Src/stm32f4xx_ll_gpio.c:187:3
	pop	{r7, pc}
.Ltmp47:
	.p2align	2
.LBB0_12:
	@DEBUG_VALUE: LL_GPIO_DeInit:GPIOx <- [DW_OP_LLVM_entry_value 1] $r0
	@DEBUG_VALUE: LL_GPIO_DeInit:status <- 0
	.loc	4 0 3 is_stmt 0                 @ ../Drivers/STM32F4xx_HAL_Driver/Src/stm32f4xx_ll_gpio.c:0:3
	movw	r0, #14352
	movt	r0, #16386
.Ltmp48:
	@DEBUG_VALUE: LL_AHB1_GRP1_ForceReset:Periphs <- 256
	.loc	5 584 3 is_stmt 1               @ ../Drivers/STM32F4xx_HAL_Driver/Inc\stm32f4xx_ll_bus.h:584:3
	ldr	r1, [r0]
	orr	r1, r1, #256
	str	r1, [r0]
.Ltmp49:
	@DEBUG_VALUE: LL_AHB1_GRP1_ReleaseReset:Periphs <- 256
	.loc	5 633 3                         @ ../Drivers/STM32F4xx_HAL_Driver/Inc\stm32f4xx_ll_bus.h:633:3
	ldr	r1, [r0]
	bic	r1, r1, #256
.Ltmp50:
	.loc	4 0 0 is_stmt 0                 @ ../Drivers/STM32F4xx_HAL_Driver/Src/stm32f4xx_ll_gpio.c:0:0
	str	r1, [r0]
	movs	r0, #0
.Ltmp51:
	@DEBUG_VALUE: LL_GPIO_DeInit:status <- $r0
	.loc	4 187 3 is_stmt 1               @ ../Drivers/STM32F4xx_HAL_Driver/Src/stm32f4xx_ll_gpio.c:187:3
	pop	{r7, pc}
.Ltmp52:
.Lfunc_end0:
	.size	LL_GPIO_DeInit, .Lfunc_end0-LL_GPIO_DeInit
	.cfi_endproc
	.cantunwind
	.fnend
                                        @ -- End function
	.section	.text.LL_GPIO_Init,"ax",%progbits
	.hidden	LL_GPIO_Init                    @ -- Begin function LL_GPIO_Init
	.globl	LL_GPIO_Init
	.p2align	2
	.type	LL_GPIO_Init,%function
	.code	16                              @ @LL_GPIO_Init
	.thumb_func
LL_GPIO_Init:
.Lfunc_begin1:
	.loc	4 200 0                         @ ../Drivers/STM32F4xx_HAL_Driver/Src/stm32f4xx_ll_gpio.c:200:0
	.fnstart
	.cfi_startproc
@ %bb.0:
	@DEBUG_VALUE: LL_GPIO_Init:GPIOx <- $r0
	@DEBUG_VALUE: LL_GPIO_Init:GPIO_InitStruct <- $r1
	.save	{r4, r5, r6, r7, r8, r9, r10, r11, lr}
	push.w	{r4, r5, r6, r7, r8, r9, r10, r11, lr}
	.cfi_def_cfa_offset 36
	.cfi_offset lr, -4
	.cfi_offset r11, -8
	.cfi_offset r10, -12
	.cfi_offset r9, -16
	.cfi_offset r8, -20
	.cfi_offset r7, -24
	.cfi_offset r6, -28
	.cfi_offset r5, -32
	.cfi_offset r4, -36
	.pad	#4
	sub	sp, #4
	.cfi_def_cfa_offset 40
	mov	r4, r0
.Ltmp53:
	@DEBUG_VALUE: LL_GPIO_Init:currentpin <- 0
	@DEBUG_VALUE: LL_GPIO_Init:pinpos <- 0
	@DEBUG_VALUE: LL_GPIO_Init:GPIOx <- $r4
	.loc	4 205 3 prologue_end            @ ../Drivers/STM32F4xx_HAL_Driver/Src/stm32f4xx_ll_gpio.c:205:3
	add.w	r0, r0, #3187671040
	add.w	r0, r0, #33423360
	ror.w	r0, r0, #10
	cmp	r0, #9
	mov	r5, r1
.Ltmp54:
	@DEBUG_VALUE: LL_GPIO_Init:GPIO_InitStruct <- $r5
	@DEBUG_VALUE: LL_GPIO_Init:GPIO_InitStruct <- $r5
	blo	.LBB1_2
.Ltmp55:
@ %bb.1:
	@DEBUG_VALUE: LL_GPIO_Init:GPIO_InitStruct <- $r5
	@DEBUG_VALUE: LL_GPIO_Init:GPIOx <- $r4
	@DEBUG_VALUE: LL_GPIO_Init:pinpos <- 0
	@DEBUG_VALUE: LL_GPIO_Init:currentpin <- 0
	movw	r0, :lower16:.L.str
	movt	r0, :upper16:.L.str
	movs	r1, #205
	bl	assert_failed
.Ltmp56:
.LBB1_2:
	@DEBUG_VALUE: LL_GPIO_Init:GPIO_InitStruct <- $r5
	@DEBUG_VALUE: LL_GPIO_Init:GPIOx <- $r4
	@DEBUG_VALUE: LL_GPIO_Init:pinpos <- 0
	@DEBUG_VALUE: LL_GPIO_Init:currentpin <- 0
	.loc	4 206 3                         @ ../Drivers/STM32F4xx_HAL_Driver/Src/stm32f4xx_ll_gpio.c:206:3
	ldr	r0, [r5]
	movw	r1, #65535
	subs	r0, #1
	cmp	r0, r1
	bhs.w	.LBB1_23
.Ltmp57:
@ %bb.3:
	@DEBUG_VALUE: LL_GPIO_Init:GPIO_InitStruct <- $r5
	@DEBUG_VALUE: LL_GPIO_Init:GPIOx <- $r4
	@DEBUG_VALUE: LL_GPIO_Init:pinpos <- 0
	@DEBUG_VALUE: LL_GPIO_Init:currentpin <- 0
	.loc	4 207 3                         @ ../Drivers/STM32F4xx_HAL_Driver/Src/stm32f4xx_ll_gpio.c:207:3
	ldr	r0, [r5, #4]
	cmp	r0, #4
	bhs.w	.LBB1_24
.Ltmp58:
.LBB1_4:
	@DEBUG_VALUE: LL_GPIO_Init:GPIO_InitStruct <- $r5
	@DEBUG_VALUE: LL_GPIO_Init:GPIOx <- $r4
	@DEBUG_VALUE: LL_GPIO_Init:pinpos <- 0
	@DEBUG_VALUE: LL_GPIO_Init:currentpin <- 0
	.loc	4 208 3                         @ ../Drivers/STM32F4xx_HAL_Driver/Src/stm32f4xx_ll_gpio.c:208:3
	ldr	r0, [r5, #16]
	cmp	r0, #3
	blo	.LBB1_6
.Ltmp59:
.LBB1_5:
	@DEBUG_VALUE: LL_GPIO_Init:GPIO_InitStruct <- $r5
	@DEBUG_VALUE: LL_GPIO_Init:GPIOx <- $r4
	@DEBUG_VALUE: LL_GPIO_Init:pinpos <- 0
	@DEBUG_VALUE: LL_GPIO_Init:currentpin <- 0
	movw	r0, :lower16:.L.str
	movt	r0, :upper16:.L.str
	movs	r1, #208
	bl	assert_failed
.Ltmp60:
.LBB1_6:
	@DEBUG_VALUE: LL_GPIO_Init:GPIO_InitStruct <- $r5
	@DEBUG_VALUE: LL_GPIO_Init:GPIOx <- $r4
	@DEBUG_VALUE: LL_GPIO_Init:pinpos <- 0
	@DEBUG_VALUE: LL_GPIO_Init:currentpin <- 0
	.loc	4 212 12                        @ ../Drivers/STM32F4xx_HAL_Driver/Src/stm32f4xx_ll_gpio.c:212:12
	ldr	r0, [r5]
	rbit	r1, r0
	clz	r7, r1
.Ltmp61:
	@DEBUG_VALUE: LL_GPIO_Init:pinpos <- $r7
	.loc	4 215 34                        @ ../Drivers/STM32F4xx_HAL_Driver/Src/stm32f4xx_ll_gpio.c:215:34
	lsrs.w	r1, r0, r7
	.loc	4 215 3 is_stmt 0               @ ../Drivers/STM32F4xx_HAL_Driver/Src/stm32f4xx_ll_gpio.c:215:3
	beq.w	.LBB1_22
.Ltmp62:
@ %bb.7:
	@DEBUG_VALUE: LL_GPIO_Init:pinpos <- $r7
	@DEBUG_VALUE: LL_GPIO_Init:GPIO_InitStruct <- $r5
	@DEBUG_VALUE: LL_GPIO_Init:GPIOx <- $r4
	@DEBUG_VALUE: LL_GPIO_Init:currentpin <- 0
	.loc	4 0 3                           @ ../Drivers/STM32F4xx_HAL_Driver/Src/stm32f4xx_ll_gpio.c:0:3
	mov.w	r11, #1
	b	.LBB1_11
.Ltmp63:
	.p2align	2
.LBB1_8:                                @   in Loop: Header=BB1_11 Depth=1
	@DEBUG_VALUE: LL_GPIO_Init:currentpin <- $r6
	@DEBUG_VALUE: LL_GPIO_Init:pinpos <- $r7
	@DEBUG_VALUE: LL_GPIO_Init:GPIO_InitStruct <- $r5
	@DEBUG_VALUE: LL_GPIO_Init:GPIOx <- $r4
	.loc	4 247 38 is_stmt 1              @ ../Drivers/STM32F4xx_HAL_Driver/Src/stm32f4xx_ll_gpio.c:247:38
	uxtb	r0, r6
.Ltmp64:
	.loc	4 247 13 is_stmt 0              @ ../Drivers/STM32F4xx_HAL_Driver/Src/stm32f4xx_ll_gpio.c:247:13
	lsrs	r2, r6, #8
	rbit	r2, r2
	cmp	r0, #0
	mov.w	r0, #32
.Ltmp65:
	.loc	4 0 0                           @ ../Drivers/STM32F4xx_HAL_Driver/Src/stm32f4xx_ll_gpio.c:0:0
	ldr	r1, [r5, #20]
.Ltmp66:
	.loc	4 247 13                        @ ../Drivers/STM32F4xx_HAL_Driver/Src/stm32f4xx_ll_gpio.c:247:13
	it	eq
	clzeq	r8, r2
	it	eq
	moveq	r0, #36
.Ltmp67:
	.loc	4 0 0                           @ ../Drivers/STM32F4xx_HAL_Driver/Src/stm32f4xx_ll_gpio.c:0:0
	ldr	r2, [r4, r0]
	lsl.w	r3, r8, #2
	movs	r6, #15
.Ltmp68:
	lsls	r6, r3
	bics	r2, r6
	lsls	r1, r3
	orrs	r1, r2
	str	r1, [r4, r0]
.Ltmp69:
.LBB1_9:                                @   in Loop: Header=BB1_11 Depth=1
	@DEBUG_VALUE: LL_GPIO_Init:pinpos <- $r7
	@DEBUG_VALUE: LL_GPIO_Init:GPIO_InitStruct <- $r5
	@DEBUG_VALUE: LL_GPIO_Init:GPIOx <- $r4
	@DEBUG_VALUE: LL_GPIO_SetPinMode:Mode <- undef
	@DEBUG_VALUE: LL_GPIO_SetPinMode:Pin <- undef
	.loc	4 215 29 is_stmt 1              @ ../Drivers/STM32F4xx_HAL_Driver/Src/stm32f4xx_ll_gpio.c:215:29
	ldrd	r0, r1, [r5]
.Ltmp70:
	@DEBUG_VALUE: LL_GPIO_SetPinMode:GPIOx <- $r4
	.file	6 "f:\\OwnProject\\CubeMX\\stm32f407_ll_usart_dma\\MDK-ARM" "../Drivers/STM32F4xx_HAL_Driver/Inc\\stm32f4xx_ll_gpio.h"
	.loc	6 275 3                         @ ../Drivers/STM32F4xx_HAL_Driver/Inc\stm32f4xx_ll_gpio.h:275:3
	ldr	r2, [r4]
	lsl.w	r1, r1, r10
	and.w	r2, r2, r9
	orrs	r1, r2
	str	r1, [r4]
.Ltmp71:
.LBB1_10:                               @   in Loop: Header=BB1_11 Depth=1
	@DEBUG_VALUE: LL_GPIO_Init:pinpos <- $r7
	@DEBUG_VALUE: LL_GPIO_Init:GPIO_InitStruct <- $r5
	@DEBUG_VALUE: LL_GPIO_Init:GPIOx <- $r4
	.loc	4 260 11                        @ ../Drivers/STM32F4xx_HAL_Driver/Src/stm32f4xx_ll_gpio.c:260:11
	adds	r7, #1
.Ltmp72:
	@DEBUG_VALUE: LL_GPIO_Init:pinpos <- $r7
	.loc	4 215 34                        @ ../Drivers/STM32F4xx_HAL_Driver/Src/stm32f4xx_ll_gpio.c:215:34
	lsrs.w	r1, r0, r7
	.loc	4 215 3 is_stmt 0               @ ../Drivers/STM32F4xx_HAL_Driver/Src/stm32f4xx_ll_gpio.c:215:3
	beq	.LBB1_22
.Ltmp73:
.LBB1_11:                               @ =>This Inner Loop Header: Depth=1
	@DEBUG_VALUE: LL_GPIO_Init:pinpos <- $r7
	@DEBUG_VALUE: LL_GPIO_Init:GPIO_InitStruct <- $r5
	@DEBUG_VALUE: LL_GPIO_Init:GPIOx <- $r4
	@DEBUG_VALUE: LL_GPIO_Init:pinpos <- $r7
	.loc	4 218 56 is_stmt 1              @ ../Drivers/STM32F4xx_HAL_Driver/Src/stm32f4xx_ll_gpio.c:218:56
	lsl.w	r1, r11, r7
	.loc	4 218 41 is_stmt 0              @ ../Drivers/STM32F4xx_HAL_Driver/Src/stm32f4xx_ll_gpio.c:218:41
	ands.w	r6, r0, r1
.Ltmp74:
	@DEBUG_VALUE: LL_GPIO_Init:currentpin <- $r6
	.loc	4 220 9 is_stmt 1               @ ../Drivers/STM32F4xx_HAL_Driver/Src/stm32f4xx_ll_gpio.c:220:9
	beq	.LBB1_10
.Ltmp75:
@ %bb.12:                               @   in Loop: Header=BB1_11 Depth=1
	@DEBUG_VALUE: LL_GPIO_Init:currentpin <- $r6
	@DEBUG_VALUE: LL_GPIO_Init:pinpos <- $r7
	@DEBUG_VALUE: LL_GPIO_Init:GPIO_InitStruct <- $r5
	@DEBUG_VALUE: LL_GPIO_Init:GPIOx <- $r4
	.loc	4 223 29                        @ ../Drivers/STM32F4xx_HAL_Driver/Src/stm32f4xx_ll_gpio.c:223:29
	ldr	r0, [r5, #4]
	.loc	4 223 58 is_stmt 0              @ ../Drivers/STM32F4xx_HAL_Driver/Src/stm32f4xx_ll_gpio.c:223:58
	subs	r0, #1
	cmp	r0, #2
	bhs	.LBB1_18
.Ltmp76:
@ %bb.13:                               @   in Loop: Header=BB1_11 Depth=1
	@DEBUG_VALUE: LL_GPIO_Init:currentpin <- $r6
	@DEBUG_VALUE: LL_GPIO_Init:pinpos <- $r7
	@DEBUG_VALUE: LL_GPIO_Init:GPIO_InitStruct <- $r5
	@DEBUG_VALUE: LL_GPIO_Init:GPIOx <- $r4
	.loc	4 226 9 is_stmt 1               @ ../Drivers/STM32F4xx_HAL_Driver/Src/stm32f4xx_ll_gpio.c:226:9
	ldr	r0, [r5, #8]
	cmp	r0, #4
	blo	.LBB1_15
.Ltmp77:
@ %bb.14:                               @   in Loop: Header=BB1_11 Depth=1
	@DEBUG_VALUE: LL_GPIO_Init:currentpin <- $r6
	@DEBUG_VALUE: LL_GPIO_Init:pinpos <- $r7
	@DEBUG_VALUE: LL_GPIO_Init:GPIO_InitStruct <- $r5
	@DEBUG_VALUE: LL_GPIO_Init:GPIOx <- $r4
	movw	r0, :lower16:.L.str
	movt	r0, :upper16:.L.str
	movs	r1, #226
	bl	assert_failed
.Ltmp78:
	.loc	4 229 65                        @ ../Drivers/STM32F4xx_HAL_Driver/Src/stm32f4xx_ll_gpio.c:229:65
	ldr	r0, [r5, #8]
.Ltmp79:
.LBB1_15:                               @   in Loop: Header=BB1_11 Depth=1
	@DEBUG_VALUE: LL_GPIO_Init:currentpin <- $r6
	@DEBUG_VALUE: LL_GPIO_Init:pinpos <- $r7
	@DEBUG_VALUE: LL_GPIO_Init:GPIO_InitStruct <- $r5
	@DEBUG_VALUE: LL_GPIO_Init:GPIOx <- $r4
	@DEBUG_VALUE: LL_GPIO_SetPinSpeed:GPIOx <- $r4
	@DEBUG_VALUE: LL_GPIO_SetPinSpeed:Pin <- $r6
	@DEBUG_VALUE: LL_GPIO_SetPinSpeed:Speed <- $r0
	.loc	6 415 3                         @ ../Drivers/STM32F4xx_HAL_Driver/Inc\stm32f4xx_ll_gpio.h:415:3
	rbit	r2, r6
	clz	r8, r2
	ldr	r1, [r4, #8]
	lsl.w	r10, r8, #1
	movs	r2, #3
	lsl.w	r9, r2, r10
	bic.w	r1, r1, r9
	lsl.w	r0, r0, r10
.Ltmp80:
	orrs	r0, r1
	str	r0, [r4, #8]
.Ltmp81:
	.loc	4 232 9                         @ ../Drivers/STM32F4xx_HAL_Driver/Src/stm32f4xx_ll_gpio.c:232:9
	ldr	r0, [r5, #12]
	cmp	r0, #2
	blo	.LBB1_17
.Ltmp82:
@ %bb.16:                               @   in Loop: Header=BB1_11 Depth=1
	@DEBUG_VALUE: LL_GPIO_Init:currentpin <- $r6
	@DEBUG_VALUE: LL_GPIO_Init:pinpos <- $r7
	@DEBUG_VALUE: LL_GPIO_Init:GPIO_InitStruct <- $r5
	@DEBUG_VALUE: LL_GPIO_Init:GPIOx <- $r4
	movw	r0, :lower16:.L.str
	movt	r0, :upper16:.L.str
	movs	r1, #232
	bl	assert_failed
.Ltmp83:
	.loc	4 235 70                        @ ../Drivers/STM32F4xx_HAL_Driver/Src/stm32f4xx_ll_gpio.c:235:70
	ldr	r0, [r5, #12]
.Ltmp84:
.LBB1_17:                               @   in Loop: Header=BB1_11 Depth=1
	@DEBUG_VALUE: LL_GPIO_Init:currentpin <- $r6
	@DEBUG_VALUE: LL_GPIO_Init:pinpos <- $r7
	@DEBUG_VALUE: LL_GPIO_Init:GPIO_InitStruct <- $r5
	@DEBUG_VALUE: LL_GPIO_Init:GPIOx <- $r4
	.loc	6 344 3                         @ ../Drivers/STM32F4xx_HAL_Driver/Inc\stm32f4xx_ll_gpio.h:344:3
	ldr	r1, [r4, #4]
	muls	r0, r6, r0
	bics	r1, r6
.Ltmp85:
	.loc	4 0 0 is_stmt 0                 @ ../Drivers/STM32F4xx_HAL_Driver/Src/stm32f4xx_ll_gpio.c:0:0
	mvn.w	r9, r9
.Ltmp86:
	@DEBUG_VALUE: LL_GPIO_SetPinOutputType:OutputType <- $r0
	@DEBUG_VALUE: LL_GPIO_SetPinOutputType:PinMask <- $r6
	@DEBUG_VALUE: LL_GPIO_SetPinOutputType:GPIOx <- $r4
	.loc	6 344 3                         @ ../Drivers/STM32F4xx_HAL_Driver/Inc\stm32f4xx_ll_gpio.h:344:3
	orrs	r0, r1
.Ltmp87:
	str	r0, [r4, #4]
	b	.LBB1_19
.Ltmp88:
	.p2align	2
.LBB1_18:                               @   in Loop: Header=BB1_11 Depth=1
	@DEBUG_VALUE: LL_GPIO_Init:currentpin <- $r6
	@DEBUG_VALUE: LL_GPIO_Init:pinpos <- $r7
	@DEBUG_VALUE: LL_GPIO_Init:GPIO_InitStruct <- $r5
	@DEBUG_VALUE: LL_GPIO_Init:GPIOx <- $r4
	.loc	6 486 3 is_stmt 1               @ ../Drivers/STM32F4xx_HAL_Driver/Inc\stm32f4xx_ll_gpio.h:486:3
	rbit	r0, r6
	clz	r8, r0
	lsl.w	r10, r8, #1
	movs	r0, #3
	lsl.w	r0, r0, r10
	mvn.w	r9, r0
.Ltmp89:
.LBB1_19:                               @   in Loop: Header=BB1_11 Depth=1
	@DEBUG_VALUE: LL_GPIO_Init:currentpin <- $r6
	@DEBUG_VALUE: LL_GPIO_Init:pinpos <- $r7
	@DEBUG_VALUE: LL_GPIO_Init:GPIO_InitStruct <- $r5
	@DEBUG_VALUE: LL_GPIO_Init:GPIOx <- $r4
	.loc	4 241 28                        @ ../Drivers/STM32F4xx_HAL_Driver/Src/stm32f4xx_ll_gpio.c:241:28
	ldr	r0, [r5, #4]
.Ltmp90:
	.loc	4 239 62                        @ ../Drivers/STM32F4xx_HAL_Driver/Src/stm32f4xx_ll_gpio.c:239:62
	ldr	r1, [r5, #16]
.Ltmp91:
	@DEBUG_VALUE: LL_GPIO_SetPinPull:Pin <- $r6
	@DEBUG_VALUE: LL_GPIO_SetPinPull:GPIOx <- $r4
	@DEBUG_VALUE: LL_GPIO_SetPinPull:Pull <- $r1
	.loc	6 486 3                         @ ../Drivers/STM32F4xx_HAL_Driver/Inc\stm32f4xx_ll_gpio.h:486:3
	ldr	r2, [r4, #12]
	lsl.w	r1, r1, r10
.Ltmp92:
	and.w	r2, r2, r9
	orrs	r1, r2
.Ltmp93:
	.loc	4 241 11                        @ ../Drivers/STM32F4xx_HAL_Driver/Src/stm32f4xx_ll_gpio.c:241:11
	cmp	r0, #2
.Ltmp94:
	.loc	6 486 3                         @ ../Drivers/STM32F4xx_HAL_Driver/Inc\stm32f4xx_ll_gpio.h:486:3
	str	r1, [r4, #12]
.Ltmp95:
	.loc	4 241 11                        @ ../Drivers/STM32F4xx_HAL_Driver/Src/stm32f4xx_ll_gpio.c:241:11
	bne	.LBB1_9
.Ltmp96:
@ %bb.20:                               @   in Loop: Header=BB1_11 Depth=1
	@DEBUG_VALUE: LL_GPIO_Init:currentpin <- $r6
	@DEBUG_VALUE: LL_GPIO_Init:pinpos <- $r7
	@DEBUG_VALUE: LL_GPIO_Init:GPIO_InitStruct <- $r5
	@DEBUG_VALUE: LL_GPIO_Init:GPIOx <- $r4
	.loc	4 244 9                         @ ../Drivers/STM32F4xx_HAL_Driver/Src/stm32f4xx_ll_gpio.c:244:9
	ldr	r0, [r5, #20]
	cmp	r0, #16
	blo	.LBB1_8
.Ltmp97:
@ %bb.21:                               @   in Loop: Header=BB1_11 Depth=1
	@DEBUG_VALUE: LL_GPIO_Init:currentpin <- $r6
	@DEBUG_VALUE: LL_GPIO_Init:pinpos <- $r7
	@DEBUG_VALUE: LL_GPIO_Init:GPIO_InitStruct <- $r5
	@DEBUG_VALUE: LL_GPIO_Init:GPIOx <- $r4
	movw	r0, :lower16:.L.str
	movt	r0, :upper16:.L.str
	movs	r1, #244
	bl	assert_failed
.Ltmp98:
	.loc	4 0 9 is_stmt 0                 @ ../Drivers/STM32F4xx_HAL_Driver/Src/stm32f4xx_ll_gpio.c:0:9
	b	.LBB1_8
.Ltmp99:
	.p2align	2
.LBB1_22:
	@DEBUG_VALUE: LL_GPIO_Init:pinpos <- $r7
	@DEBUG_VALUE: LL_GPIO_Init:GPIO_InitStruct <- $r5
	@DEBUG_VALUE: LL_GPIO_Init:GPIOx <- $r4
	.loc	4 263 3 is_stmt 1               @ ../Drivers/STM32F4xx_HAL_Driver/Src/stm32f4xx_ll_gpio.c:263:3
	movs	r0, #0
	add	sp, #4
	pop.w	{r4, r5, r6, r7, r8, r9, r10, r11, pc}
.Ltmp100:
	.p2align	2
.LBB1_23:
	@DEBUG_VALUE: LL_GPIO_Init:GPIO_InitStruct <- $r5
	@DEBUG_VALUE: LL_GPIO_Init:GPIOx <- $r4
	@DEBUG_VALUE: LL_GPIO_Init:pinpos <- 0
	@DEBUG_VALUE: LL_GPIO_Init:currentpin <- 0
	.loc	4 206 3                         @ ../Drivers/STM32F4xx_HAL_Driver/Src/stm32f4xx_ll_gpio.c:206:3
	movw	r0, :lower16:.L.str
	movt	r0, :upper16:.L.str
	movs	r1, #206
	bl	assert_failed
.Ltmp101:
	.loc	4 207 3                         @ ../Drivers/STM32F4xx_HAL_Driver/Src/stm32f4xx_ll_gpio.c:207:3
	ldr	r0, [r5, #4]
	cmp	r0, #4
	blo.w	.LBB1_4
.Ltmp102:
.LBB1_24:
	@DEBUG_VALUE: LL_GPIO_Init:GPIO_InitStruct <- $r5
	@DEBUG_VALUE: LL_GPIO_Init:GPIOx <- $r4
	@DEBUG_VALUE: LL_GPIO_Init:pinpos <- 0
	@DEBUG_VALUE: LL_GPIO_Init:currentpin <- 0
	movw	r0, :lower16:.L.str
	movt	r0, :upper16:.L.str
	movs	r1, #207
	bl	assert_failed
.Ltmp103:
	.loc	4 208 3                         @ ../Drivers/STM32F4xx_HAL_Driver/Src/stm32f4xx_ll_gpio.c:208:3
	ldr	r0, [r5, #16]
	cmp	r0, #3
	bhs.w	.LBB1_5
	b	.LBB1_6
.Ltmp104:
.Lfunc_end1:
	.size	LL_GPIO_Init, .Lfunc_end1-LL_GPIO_Init
	.cfi_endproc
	.cantunwind
	.fnend
                                        @ -- End function
	.section	.text.LL_GPIO_StructInit,"ax",%progbits
	.hidden	LL_GPIO_StructInit              @ -- Begin function LL_GPIO_StructInit
	.globl	LL_GPIO_StructInit
	.p2align	2
	.type	LL_GPIO_StructInit,%function
	.code	16                              @ @LL_GPIO_StructInit
	.thumb_func
LL_GPIO_StructInit:
.Lfunc_begin2:
	.loc	4 274 0                         @ ../Drivers/STM32F4xx_HAL_Driver/Src/stm32f4xx_ll_gpio.c:274:0
	.fnstart
	.cfi_startproc
@ %bb.0:
	@DEBUG_VALUE: LL_GPIO_StructInit:GPIO_InitStruct <- $r0
	movw	r1, #65535
	movs	r3, #0
	movs	r2, #3
.Ltmp105:
	.loc	4 276 31 prologue_end           @ ../Drivers/STM32F4xx_HAL_Driver/Src/stm32f4xx_ll_gpio.c:276:31
	stm.w	r0, {r1, r2, r3}
	.loc	4 279 31                        @ ../Drivers/STM32F4xx_HAL_Driver/Src/stm32f4xx_ll_gpio.c:279:31
	strd	r3, r3, [r0, #12]
	str	r3, [r0, #20]
	.loc	4 282 1                         @ ../Drivers/STM32F4xx_HAL_Driver/Src/stm32f4xx_ll_gpio.c:282:1
	bx	lr
.Ltmp106:
.Lfunc_end2:
	.size	LL_GPIO_StructInit, .Lfunc_end2-LL_GPIO_StructInit
	.cfi_endproc
	.cantunwind
	.fnend
                                        @ -- End function
	.type	.L.str,%object                  @ @.str
	.section	.rodata.str1.1,"aMS",%progbits,1
.L.str:
	.asciz	"../Drivers/STM32F4xx_HAL_Driver/Src/stm32f4xx_ll_gpio.c"
	.size	.L.str, 56

	.section	".note.GNU-stack","",%progbits
	.eabi_attribute	30, 2	@ Tag_ABI_optimization_goals
	.ARM_attribute	16, 1	@ Tag_AV_eba