	.text
	.syntax unified
	.eabi_attribute	67, "2.09"	@ Tag_conformance
	.cpu	cortex-m4
	.eabi_attribute	6, 13	@ Tag_CPU_arch
	.eabi_attribute	7, 77	@ Tag_CPU_arch_profile
	.eabi_attribute	8, 0	@ Tag_ARM_ISA_use
	.eabi_attribute	9, 2	@ Tag_THUMB_ISA_use
	.fpu	fpv4-sp-d16
	.eabi_attribute	27, 1	@ Tag_ABI_HardFP_use
	.eabi_attribute	36, 1	@ Tag_FP_HP_extension
	.eabi_attribute	34, 1	@ Tag_CPU_unaligned_access
	.eabi_attribute	17, 1	@ Tag_ABI_PCS_GOT_use
	.eabi_attribute	20, 2	@ Tag_ABI_FP_denormal
	.eabi_attribute	21, 0	@ Tag_ABI_FP_exceptions
	.eabi_attribute	23, 1	@ Tag_ABI_FP_number_model
	.eabi_attribute	24, 1	@ Tag_ABI_align_needed
	.eabi_attribute	25, 1	@ Tag_ABI_align_preserved
	.eabi_attribute	28, 1	@ Tag_ABI_VFP_args
	.eabi_attribute	38, 1	@ Tag_ABI_FP_16bit_format
	.eabi_attribute	18, 2	@ Tag_ABI_PCS_wchar_t
	.eabi_attribute	26, 1	@ Tag_ABI_enum_size
	.eabi_attribute	14, 0	@ Tag_ABI_PCS_R9_use
	.file	"fifo.c"
	.file	1 "D:\\ProgramFiles\\KEIL\\ARM\\ARMCLANG\\Bin\\..\\include" "stdint.h"
	.file	2 "f:\\OwnProject\\CubeMX\\stm32f407_ll_usart_dma\\MDK-ARM" "../User/Library/fifo.h"
	.section	.text.fifo_init,"ax",%progbits
	.hidden	fifo_init                       @ -- Begin function fifo_init
	.globl	fifo_init
	.p2align	2
	.type	fifo_init,%function
	.code	16                              @ @fifo_init
	.thumb_func
fifo_init:
.Lfunc_begin0:
	.file	3 "f:\\OwnProject\\CubeMX\\stm32f407_ll_usart_dma\\MDK-ARM" "../User/Library/fifo.c"
	.loc	3 67 0                          @ ../User/Library/fifo.c:67:0
	.fnstart
	.cfi_sections .debug_frame
	.cfi_startproc
@ %bb.0:
	@DEBUG_VALUE: fifo_init:fifo <- $r0
	@DEBUG_VALUE: fifo_init:buffer_addr <- $r1
	@DEBUG_VALUE: fifo_init:buffer_size <- $r2
	.loc	3 69 7 prologue_end             @ ../User/Library/fifo.c:69:7
	subs	r3, r2, #1
	tst	r2, r3
	beq	.LBB0_11
.Ltmp0:
@ %bb.1:
	@DEBUG_VALUE: fifo_init:buffer_size <- $r2
	@DEBUG_VALUE: fifo_init:buffer_addr <- $r1
	@DEBUG_VALUE: fifo_init:fifo <- $r0
	@DEBUG_VALUE: round_fifo_size:size <- $r2
	@DEBUG_VALUE: round_fifo_size:mode <- 0
	.loc	3 44 7                          @ ../User/Library/fifo.c:44:7
	cbz	r2, .LBB0_12
.Ltmp1:
@ %bb.2:
	@DEBUG_VALUE: round_fifo_size:mode <- 0
	@DEBUG_VALUE: round_fifo_size:size <- $r2
	@DEBUG_VALUE: fifo_init:buffer_size <- $r2
	@DEBUG_VALUE: fifo_init:buffer_addr <- $r1
	@DEBUG_VALUE: fifo_init:fifo <- $r0
	.loc	3 0 7 is_stmt 0                 @ ../User/Library/fifo.c:0:7
	movs	r3, #0
.Ltmp2:
	.p2align	2
.LBB0_3:                                @ =>This Inner Loop Header: Depth=1
	@DEBUG_VALUE: round_fifo_size:mode <- 0
	@DEBUG_VALUE: round_fifo_size:size <- $r2
	@DEBUG_VALUE: fifo_init:buffer_addr <- $r1
	@DEBUG_VALUE: fifo_init:fifo <- $r0
	@DEBUG_VALUE: round_fifo_size:size <- [DW_OP_constu 1, DW_OP_shr, DW_OP_stack_value] $r2
	@DEBUG_VALUE: round_fifo_size:position <- [DW_OP_plus_uconst 1, DW_OP_stack_value] $r3
	.loc	3 47 3 is_stmt 1                @ ../User/Library/fifo.c:47:3
	cmp	r2, #2
	blo	.LBB0_10
.Ltmp3:
@ %bb.4:                                @   in Loop: Header=BB0_3 Depth=1
	@DEBUG_VALUE: round_fifo_size:position <- [DW_OP_plus_uconst 1, DW_OP_stack_value] $r3
	@DEBUG_VALUE: round_fifo_size:size <- [DW_OP_constu 1, DW_OP_shr, DW_OP_stack_value] $r2
	@DEBUG_VALUE: round_fifo_size:mode <- 0
	@DEBUG_VALUE: fifo_init:buffer_addr <- $r1
	@DEBUG_VALUE: fifo_init:fifo <- $r0
	@DEBUG_VALUE: round_fifo_size:size <- [DW_OP_constu 2, DW_OP_shr, DW_OP_stack_value] $r2
	@DEBUG_VALUE: round_fifo_size:position <- [DW_OP_plus_uconst 2, DW_OP_stack_value] $r3
	cmp	r2, #4
	blo	.LBB0_8
.Ltmp4:
@ %bb.5:                                @   in Loop: Header=BB0_3 Depth=1
	@DEBUG_VALUE: round_fifo_size:position <- [DW_OP_plus_uconst 2, DW_OP_stack_value] $r3
	@DEBUG_VALUE: round_fifo_size:size <- [DW_OP_constu 2, DW_OP_shr, DW_OP_stack_value] $r2
	@DEBUG_VALUE: round_fifo_size:mode <- 0
	@DEBUG_VALUE: fifo_init:buffer_addr <- $r1
	@DEBUG_VALUE: fifo_init:fifo <- $r0
	@DEBUG_VALUE: round_fifo_size:size <- [DW_OP_constu 3, DW_OP_shr, DW_OP_stack_value] $r2
	@DEBUG_VALUE: round_fifo_size:position <- [DW_OP_plus_uconst 3, DW_OP_stack_value] $r3
	cmp	r2, #8
	blo	.LBB0_9
.Ltmp5:
@ %bb.6:                                @   in Loop: Header=BB0_3 Depth=1
	@DEBUG_VALUE: round_fifo_size:position <- [DW_OP_plus_uconst 3, DW_OP_stack_value] $r3
	@DEBUG_VALUE: round_fifo_size:size <- [DW_OP_constu 3, DW_OP_shr, DW_OP_stack_value] $r2
	@DEBUG_VALUE: round_fifo_size:mode <- 0
	@DEBUG_VALUE: fifo_init:buffer_addr <- $r1
	@DEBUG_VALUE: fifo_init:fifo <- $r0
	@DEBUG_VALUE: round_fifo_size:size <- [DW_OP_constu 3, DW_OP_shr, DW_OP_stack_value] $r2
	@DEBUG_VALUE: round_fifo_size:position <- [DW_OP_plus_uconst 3, DW_OP_stack_value] $r3
	.loc	3 49 17                         @ ../User/Library/fifo.c:49:17
	lsrs	r2, r2, #4
.Ltmp6:
	@DEBUG_VALUE: fifo_init:buffer_size <- [DW_OP_LLVM_entry_value 1] $r2
	@DEBUG_VALUE: round_fifo_size:size <- $r2
	.loc	3 48 14                         @ ../User/Library/fifo.c:48:14
	add.w	r3, r3, #4
.Ltmp7:
	@DEBUG_VALUE: round_fifo_size:position <- $r3
	.loc	3 47 3                          @ ../User/Library/fifo.c:47:3
	bne	.LBB0_3
.Ltmp8:
@ %bb.7:
	@DEBUG_VALUE: round_fifo_size:position <- $r3
	@DEBUG_VALUE: round_fifo_size:mode <- 0
	@DEBUG_VALUE: round_fifo_size:size <- $r2
	@DEBUG_VALUE: fifo_init:buffer_addr <- $r1
	@DEBUG_VALUE: fifo_init:fifo <- $r0
	.loc	3 53 16                         @ ../User/Library/fifo.c:53:16
	subs	r3, #1
.Ltmp9:
	.loc	3 0 16 is_stmt 0                @ ../User/Library/fifo.c:0:16
	b	.LBB0_10
.Ltmp10:
	.p2align	2
.LBB0_8:
	@DEBUG_VALUE: round_fifo_size:position <- [DW_OP_plus_uconst 2, DW_OP_stack_value] $r3
	@DEBUG_VALUE: round_fifo_size:size <- [DW_OP_constu 2, DW_OP_shr, DW_OP_stack_value] $r2
	@DEBUG_VALUE: round_fifo_size:mode <- 0
	@DEBUG_VALUE: fifo_init:buffer_addr <- $r1
	@DEBUG_VALUE: fifo_init:fifo <- $r0
	.loc	3 53 16                         @ ../User/Library/fifo.c:53:16
	adds	r3, #1
.Ltmp11:
	.loc	3 0 16                          @ ../User/Library/fifo.c:0:16
	b	.LBB0_10
.Ltmp12:
	.p2align	2
.LBB0_9:
	@DEBUG_VALUE: round_fifo_size:position <- [DW_OP_plus_uconst 3, DW_OP_stack_value] $r3
	@DEBUG_VALUE: round_fifo_size:size <- [DW_OP_constu 3, DW_OP_shr, DW_OP_stack_value] $r2
	@DEBUG_VALUE: round_fifo_size:mode <- 0
	@DEBUG_VALUE: fifo_init:buffer_addr <- $r1
	@DEBUG_VALUE: fifo_init:fifo <- $r0
	.loc	3 53 16                         @ ../User/Library/fifo.c:53:16
	adds	r3, #2
.Ltmp13:
.LBB0_10:
	@DEBUG_VALUE: round_fifo_size:mode <- 0
	@DEBUG_VALUE: fifo_init:buffer_addr <- $r1
	@DEBUG_VALUE: fifo_init:fifo <- $r0
	@DEBUG_VALUE: round_fifo_size:position <- $r3
	.loc	3 0 16                          @ ../User/Library/fifo.c:0:16
	movs	r2, #1
	.loc	3 53 7                          @ ../User/Library/fifo.c:53:7
	cmp	r3, #31
	it	hi
	subhi	r3, #1
.Ltmp14:
	@DEBUG_VALUE: round_fifo_size:position <- $r3
	.loc	3 56 23 is_stmt 1               @ ../User/Library/fifo.c:56:23
	lsls	r2, r3
.Ltmp15:
.LBB0_11:
	@DEBUG_VALUE: fifo_init:buffer_addr <- $r1
	@DEBUG_VALUE: fifo_init:fifo <- $r0
	@DEBUG_VALUE: fifo_init:buffer_size <- $r2
	.loc	3 72 7                          @ ../User/Library/fifo.c:72:7
	cmp	r2, #2
	bhs	.LBB0_13
.Ltmp16:
.LBB0_12:
	@DEBUG_VALUE: fifo_init:buffer_size <- $r2
	@DEBUG_VALUE: fifo_init:buffer_addr <- $r1
	@DEBUG_VALUE: fifo_init:fifo <- $r0
	.loc	3 0 7 is_stmt 0                 @ ../User/Library/fifo.c:0:7
	mvn	r0, #4
.Ltmp17:
	@DEBUG_VALUE: fifo_init:fifo <- [DW_OP_LLVM_entry_value 1] $r0
	.loc	3 80 1 is_stmt 1                @ ../User/Library/fifo.c:80:1
	bx	lr
.Ltmp18:
	.p2align	2
.LBB0_13:
	@DEBUG_VALUE: fifo_init:buffer_size <- $r2
	@DEBUG_VALUE: fifo_init:buffer_addr <- $r1
	@DEBUG_VALUE: fifo_init:fifo <- $r0
	.loc	3 76 28                         @ ../User/Library/fifo.c:76:28
	subs	r3, r2, #1
	.loc	3 74 14                         @ ../User/Library/fifo.c:74:14
	stm.w	r0, {r1, r2, r3}
	movs	r1, #0
.Ltmp19:
	@DEBUG_VALUE: fifo_init:buffer_addr <- [DW_OP_LLVM_entry_value 1] $r1
	@DEBUG_VALUE: fifo_reset:fifo <- $r0
	.loc	2 55 24                         @ ../User/Library/fifo.h:55:24
	str	r1, [r0, #16]
	.loc	2 55 12 is_stmt 0               @ ../User/Library/fifo.h:55:12
	str	r1, [r0, #12]
.Ltmp20:
	.loc	3 80 1 is_stmt 1                @ ../User/Library/fifo.c:80:1
	mov	r0, r1
.Ltmp21:
	@DEBUG_VALUE: fifo_init:fifo <- [DW_OP_LLVM_entry_value 1] $r0
	bx	lr
.Ltmp22:
.Lfunc_end0:
	.size	fifo_init, .Lfunc_end0-fifo_init
	.cfi_endproc
	.cantunwind
	.fnend
                                        @ -- End function
	.section	.text.fifo_alloc,"ax",%progbits
	.hidden	fifo_alloc                      @ -- Begin function fifo_alloc
	.globl	fifo_alloc
	.p2align	2
	.type	fifo_alloc,%function
	.code	16                              @ @fifo_alloc
	.thumb_func
fifo_alloc:
.Lfunc_begin1:
	.loc	3 89 0                          @ ../User/Library/fifo.c:89:0
	.fnstart
	.cfi_startproc
@ %bb.0:
	@DEBUG_VALUE: fifo_alloc:fifo <- $r0
	@DEBUG_VALUE: fifo_alloc:buffer_size <- $r1
	.save	{r4, r5, r7, lr}
	push	{r4, r5, r7, lr}
	.cfi_def_cfa_offset 16
	.cfi_offset lr, -4
	.cfi_offset r7, -8
	.cfi_offset r5, -12
	.cfi_offset r4, -16
	mov	r5, r1
.Ltmp23:
	@DEBUG_VALUE: fifo_alloc:buffer_size <- $r5
	.loc	3 91 7 prologue_end             @ ../User/Library/fifo.c:91:7
	subs	r1, #1
	tst	r5, r1
	mov	r4, r0
.Ltmp24:
	@DEBUG_VALUE: fifo_alloc:fifo <- $r4
	@DEBUG_VALUE: fifo_alloc:fifo <- $r4
	beq	.LBB1_12
.Ltmp25:
@ %bb.1:
	@DEBUG_VALUE: fifo_alloc:fifo <- $r4
	@DEBUG_VALUE: fifo_alloc:buffer_size <- $r5
	@DEBUG_VALUE: round_fifo_size:size <- $r5
	@DEBUG_VALUE: round_fifo_size:mode <- 1
	.loc	3 44 7                          @ ../User/Library/fifo.c:44:7
	cbz	r5, .LBB1_13
.Ltmp26:
@ %bb.2:
	@DEBUG_VALUE: round_fifo_size:mode <- 1
	@DEBUG_VALUE: round_fifo_size:size <- $r5
	@DEBUG_VALUE: fifo_alloc:fifo <- $r4
	@DEBUG_VALUE: fifo_alloc:buffer_size <- $r5
	.loc	3 0 7 is_stmt 0                 @ ../User/Library/fifo.c:0:7
	mov.w	r0, #-1
.Ltmp27:
	.p2align	2
.LBB1_3:                                @ =>This Inner Loop Header: Depth=1
	@DEBUG_VALUE: round_fifo_size:mode <- 1
	@DEBUG_VALUE: round_fifo_size:size <- $r5
	@DEBUG_VALUE: fifo_alloc:fifo <- $r4
	@DEBUG_VALUE: round_fifo_size:size <- [DW_OP_constu 1, DW_OP_shr, DW_OP_stack_value] $r5
	@DEBUG_VALUE: round_fifo_size:position <- [DW_OP_plus_uconst 1, DW_OP_constu 1, DW_OP_or, DW_OP_stack_value] $r0
	.loc	3 47 3 is_stmt 1                @ ../User/Library/fifo.c:47:3
	cmp	r5, #2
	blo	.LBB1_8
.Ltmp28:
@ %bb.4:                                @   in Loop: Header=BB1_3 Depth=1
	@DEBUG_VALUE: round_fifo_size:position <- [DW_OP_plus_uconst 1, DW_OP_constu 1, DW_OP_or, DW_OP_stack_value] $r0
	@DEBUG_VALUE: round_fifo_size:size <- [DW_OP_constu 1, DW_OP_shr, DW_OP_stack_value] $r5
	@DEBUG_VALUE: round_fifo_size:mode <- 1
	@DEBUG_VALUE: fifo_alloc:fifo <- $r4
	@DEBUG_VALUE: round_fifo_size:size <- [DW_OP_constu 2, DW_OP_shr, DW_OP_stack_value] $r5
	@DEBUG_VALUE: round_fifo_size:position <- [DW_OP_plus_uconst 1, DW_OP_constu 2, DW_OP_or, DW_OP_stack_value] $r0
	cmp	r5, #4
	blo	.LBB1_9
.Ltmp29:
@ %bb.5:                                @   in Loop: Header=BB1_3 Depth=1
	@DEBUG_VALUE: round_fifo_size:position <- [DW_OP_plus_uconst 1, DW_OP_constu 2, DW_OP_or, DW_OP_stack_value] $r0
	@DEBUG_VALUE: round_fifo_size:size <- [DW_OP_constu 2, DW_OP_shr, DW_OP_stack_value] $r5
	@DEBUG_VALUE: round_fifo_size:mode <- 1
	@DEBUG_VALUE: fifo_alloc:fifo <- $r4
	@DEBUG_VALUE: round_fifo_size:size <- [DW_OP_constu 3, DW_OP_shr, DW_OP_stack_value] $r5
	@DEBUG_VALUE: round_fifo_size:position <- [DW_OP_plus_uconst 1, DW_OP_constu 3, DW_OP_or, DW_OP_stack_value] $r0
	cmp	r5, #8
	blo	.LBB1_10
.Ltmp30:
@ %bb.6:                                @   in Loop: Header=BB1_3 Depth=1
	@DEBUG_VALUE: round_fifo_size:position <- [DW_OP_plus_uconst 1, DW_OP_constu 3, DW_OP_or, DW_OP_stack_value] $r0
	@DEBUG_VALUE: round_fifo_size:size <- [DW_OP_constu 3, DW_OP_shr, DW_OP_stack_value] $r5
	@DEBUG_VALUE: round_fifo_size:mode <- 1
	@DEBUG_VALUE: fifo_alloc:fifo <- $r4
	@DEBUG_VALUE: round_fifo_size:size <- [DW_OP_constu 3, DW_OP_shr, DW_OP_stack_value] $r5
	@DEBUG_VALUE: round_fifo_size:position <- [DW_OP_plus_uconst 5, DW_OP_stack_value] $r0
	.loc	3 49 17                         @ ../User/Library/fifo.c:49:17
	lsrs	r5, r5, #4
.Ltmp31:
	@DEBUG_VALUE: fifo_alloc:buffer_size <- [DW_OP_LLVM_entry_value 1] $r1
	@DEBUG_VALUE: round_fifo_size:size <- $r5
	.loc	3 47 3                          @ ../User/Library/fifo.c:47:3
	add.w	r0, r0, #4
.Ltmp32:
	bne	.LBB1_3
.Ltmp33:
@ %bb.7:
	@DEBUG_VALUE: round_fifo_size:mode <- 1
	@DEBUG_VALUE: round_fifo_size:size <- $r5
	@DEBUG_VALUE: fifo_alloc:fifo <- $r4
	.loc	3 53 16                         @ ../User/Library/fifo.c:53:16
	adds	r1, r0, #1
	b	.LBB1_11
.Ltmp34:
	.p2align	2
.LBB1_8:
	@DEBUG_VALUE: round_fifo_size:position <- [DW_OP_plus_uconst 1, DW_OP_constu 1, DW_OP_or, DW_OP_stack_value] $r0
	@DEBUG_VALUE: round_fifo_size:size <- [DW_OP_constu 1, DW_OP_shr, DW_OP_stack_value] $r5
	@DEBUG_VALUE: round_fifo_size:mode <- 1
	@DEBUG_VALUE: fifo_alloc:fifo <- $r4
	adds	r1, r0, #2
	adds	r0, #1
.Ltmp35:
	.loc	3 0 16 is_stmt 0                @ ../User/Library/fifo.c:0:16
	b	.LBB1_11
.Ltmp36:
	.p2align	2
.LBB1_9:
	@DEBUG_VALUE: round_fifo_size:position <- [DW_OP_plus_uconst 1, DW_OP_constu 2, DW_OP_or, DW_OP_stack_value] $r0
	@DEBUG_VALUE: round_fifo_size:size <- [DW_OP_constu 2, DW_OP_shr, DW_OP_stack_value] $r5
	@DEBUG_VALUE: round_fifo_size:mode <- 1
	@DEBUG_VALUE: fifo_alloc:fifo <- $r4
	.loc	3 53 16                         @ ../User/Library/fifo.c:53:16
	adds	r1, r0, #3
.Ltmp37:
	.loc	3 48 14 is_stmt 1               @ ../User/Library/fifo.c:48:14
	adds	r0, #2
.Ltmp38:
	.loc	3 0 14 is_stmt 0                @ ../User/Library/fifo.c:0:14
	b	.LBB1_11
.Ltmp39:
	.p2align	2
.LBB1_10:
	@DEBUG_VALUE: round_fifo_size:position <- [DW_OP_plus_uconst 1, DW_OP_constu 3, DW_OP_or, DW_OP_stack_value] $r0
	@DEBUG_VALUE: round_fifo_size:size <- [DW_OP_constu 3, DW_OP_shr, DW_OP_stack_value] $r5
	@DEBUG_VALUE: round_fifo_size:mode <- 1
	@DEBUG_VALUE: fifo_alloc:fifo <- $r4
	.loc	3 53 16 is_stmt 1               @ ../User/Library/fifo.c:53:16
	adds	r1, r0, #4
.Ltmp40:
	.loc	3 48 14                         @ ../User/Library/fifo.c:48:14
	adds	r0, #3
.Ltmp41:
.LBB1_11:
	@DEBUG_VALUE: round_fifo_size:mode <- 1
	@DEBUG_VALUE: fifo_alloc:fifo <- $r4
	@DEBUG_VALUE: round_fifo_size:position <- $r1
	.loc	3 53 7                          @ ../User/Library/fifo.c:53:7
	cmp	r0, #30
	mov.w	r0, #1
	it	hi
	subhi	r1, #1
.Ltmp42:
	@DEBUG_VALUE: round_fifo_size:position <- $r1
	.loc	3 56 23                         @ ../User/Library/fifo.c:56:23
	lsl.w	r5, r0, r1
.Ltmp43:
.LBB1_12:
	@DEBUG_VALUE: fifo_alloc:fifo <- $r4
	@DEBUG_VALUE: fifo_alloc:buffer_size <- $r5
	.loc	3 94 7                          @ ../User/Library/fifo.c:94:7
	cmp	r5, #2
	bhs	.LBB1_14
.Ltmp44:
.LBB1_13:
	@DEBUG_VALUE: fifo_alloc:fifo <- $r4
	@DEBUG_VALUE: fifo_alloc:buffer_size <- $r5
	.loc	3 0 7 is_stmt 0                 @ ../User/Library/fifo.c:0:7
	movs	r0, #5
	.loc	3 103 1 is_stmt 1               @ ../User/Library/fifo.c:103:1
	pop	{r4, r5, r7, pc}
.Ltmp45:
	.p2align	2
.LBB1_14:
	@DEBUG_VALUE: fifo_alloc:fifo <- $r4
	@DEBUG_VALUE: fifo_alloc:buffer_size <- $r5
	.loc	3 96 26                         @ ../User/Library/fifo.c:96:26
	mov	r0, r5
	bl	malloc
.Ltmp46:
	.loc	3 96 13 is_stmt 0               @ ../User/Library/fifo.c:96:13
	str	r0, [r4]
	.loc	3 97 7 is_stmt 1                @ ../User/Library/fifo.c:97:7
	cbz	r0, .LBB1_16
.Ltmp47:
@ %bb.15:
	@DEBUG_VALUE: fifo_alloc:fifo <- $r4
	@DEBUG_VALUE: fifo_alloc:buffer_size <- $r5
	.loc	3 99 28                         @ ../User/Library/fifo.c:99:28
	subs	r0, r5, #1
	.loc	3 98 14                         @ ../User/Library/fifo.c:98:14
	strd	r5, r0, [r4, #4]
	movs	r0, #0
.Ltmp48:
	@DEBUG_VALUE: fifo_reset:fifo <- $r4
	.loc	2 55 24                         @ ../User/Library/fifo.h:55:24
	str	r0, [r4, #16]
	.loc	2 55 12 is_stmt 0               @ ../User/Library/fifo.h:55:12
	str	r0, [r4, #12]
.Ltmp49:
	.loc	3 103 1 is_stmt 1               @ ../User/Library/fifo.c:103:1
	pop	{r4, r5, r7, pc}
.Ltmp50:
	.p2align	2
.LBB1_16:
	@DEBUG_VALUE: fifo_alloc:fifo <- $r4
	@DEBUG_VALUE: fifo_alloc:buffer_size <- $r5
	.loc	3 0 1 is_stmt 0                 @ ../User/Library/fifo.c:0:1
	movs	r0, #6
	.loc	3 103 1                         @ ../User/Library/fifo.c:103:1
	pop	{r4, r5, r7, pc}
.Ltmp51:
.Lfunc_end1:
	.size	fifo_alloc, .Lfunc_end1-fifo_alloc
	.cfi_endproc
	.cantunwind
	.fnend
                                        @ -- End function
	.section	.text.fifo_write,"ax",%progbits
	.hidden	fifo_write                      @ -- Begin function fifo_write
	.globl	fifo_write
	.p2align	2
	.type	fifo_write,%function
	.code	16                              @ @fifo_write
	.thumb_func
fifo_write:
.Lfunc_begin2:
	.loc	3 113 0 is_stmt 1               @ ../User/Library/fifo.c:113:0
	.fnstart
	.cfi_startproc
@ %bb.0:
	@DEBUG_VALUE: fifo_write:fifo <- $r0
	@DEBUG_VALUE: fifo_write:src_buf <- $r1
	@DEBUG_VALUE: fifo_write:len <- $r2
	@DEBUG_VALUE: fifo_is_full:fifo <- $r0
	.save	{r4, r5, r6, r7, lr}
	push	{r4, r5, r6, r7, lr}
	.cfi_def_cfa_offset 20
	.cfi_offset lr, -4
	.cfi_offset r7, -8
	.cfi_offset r6, -12
	.cfi_offset r5, -16
	.cfi_offset r4, -20
	.pad	#4
	sub	sp, #4
	.cfi_def_cfa_offset 24
	mov	r5, r0
.Ltmp52:
	@DEBUG_VALUE: fifo_is_full:fifo <- $r5
	@DEBUG_VALUE: fifo_write:fifo <- $r5
	.loc	2 73 17 prologue_end            @ ../User/Library/fifo.h:73:17
	ldr	r0, [r0, #4]
	.loc	2 73 32 is_stmt 0               @ ../User/Library/fifo.h:73:32
	ldr	r3, [r5, #12]
	.loc	2 73 43                         @ ../User/Library/fifo.h:73:43
	ldr	r7, [r5, #16]
	mov	r4, r2
.Ltmp53:
	@DEBUG_VALUE: fifo_write:len <- $r4
	@DEBUG_VALUE: fifo_write:len <- $r4
	.loc	2 73 35                         @ ../User/Library/fifo.h:73:35
	subs	r2, r3, r7
.Ltmp54:
	.loc	3 115 7 is_stmt 1               @ ../User/Library/fifo.c:115:7
	cmp	r0, r2
	@DEBUG_VALUE: fifo_write:src_buf <- $r1
	bne	.LBB2_2
.Ltmp55:
@ %bb.1:
	@DEBUG_VALUE: fifo_write:len <- $r4
	@DEBUG_VALUE: fifo_write:fifo <- $r5
	@DEBUG_VALUE: fifo_write:src_buf <- $r1
	.loc	3 0 7 is_stmt 0                 @ ../User/Library/fifo.c:0:7
	movs	r4, #0
.Ltmp56:
	@DEBUG_VALUE: fifo_write:len <- [DW_OP_LLVM_entry_value 1] $r2
	.loc	3 127 1 is_stmt 1               @ ../User/Library/fifo.c:127:1
	mov	r0, r4
	add	sp, #4
	pop	{r4, r5, r6, r7, pc}
.Ltmp57:
	.p2align	2
.LBB2_2:
	@DEBUG_VALUE: fifo_write:len <- $r4
	@DEBUG_VALUE: fifo_write:fifo <- $r5
	@DEBUG_VALUE: fifo_write:src_buf <- $r1
	.loc	3 0 1 is_stmt 0                 @ ../User/Library/fifo.c:0:1
	mov	r6, r1
.Ltmp58:
	@DEBUG_VALUE: fifo_write:src_buf <- $r6
	@DEBUG_VALUE: fifo_write:src_buf <- $r6
	.loc	3 118 9 is_stmt 1               @ ../User/Library/fifo.c:118:9
	ldr	r1, [r5, #12]
	ldr	r2, [r5, #16]
	subs	r1, r0, r1
	add	r1, r2
	cmp	r1, r4
	bhi	.LBB2_4
.Ltmp59:
@ %bb.3:
	@DEBUG_VALUE: fifo_write:src_buf <- $r6
	@DEBUG_VALUE: fifo_write:len <- $r4
	@DEBUG_VALUE: fifo_write:fifo <- $r5
	ldr	r1, [r5, #12]
	ldr	r2, [r5, #16]
	subs	r1, r0, r1
	adds	r4, r1, r2
.Ltmp60:
	@DEBUG_VALUE: fifo_write:len <- [DW_OP_LLVM_entry_value 1] $r2
.LBB2_4:
	@DEBUG_VALUE: fifo_write:src_buf <- $r6
	@DEBUG_VALUE: fifo_write:fifo <- $r5
	@DEBUG_VALUE: fifo_write:len <- $r4
	.loc	3 119 7                         @ ../User/Library/fifo.c:119:7
	ldr	r1, [r5, #8]
	ldr	r2, [r5, #12]
	mov	r7, r4
	ands	r2, r1
	subs	r2, r0, r2
	cmp	r4, r2
	blo	.LBB2_6
.Ltmp61:
@ %bb.5:
	@DEBUG_VALUE: fifo_write:src_buf <- $r6
	@DEBUG_VALUE: fifo_write:len <- $r4
	@DEBUG_VALUE: fifo_write:fifo <- $r5
	ldr	r2, [r5, #12]
	ands	r2, r1
	subs	r7, r0, r2
.Ltmp62:
.LBB2_6:
	@DEBUG_VALUE: fifo_write:src_buf <- $r6
	@DEBUG_VALUE: fifo_write:len <- $r4
	@DEBUG_VALUE: fifo_write:fifo <- $r5
	@DEBUG_VALUE: fifo_write:l <- $r7
	.loc	3 121 16                        @ ../User/Library/fifo.c:121:16
	ldr	r0, [r5]
	.loc	3 121 29 is_stmt 0              @ ../User/Library/fifo.c:121:29
	ldr	r2, [r5, #12]
	.loc	3 121 32                        @ ../User/Library/fifo.c:121:32
	ands	r1, r2
	.loc	3 121 20                        @ ../User/Library/fifo.c:121:20
	add	r0, r1
	.loc	3 121 3                         @ ../User/Library/fifo.c:121:3
	mov	r1, r6
	mov	r2, r7
	bl	__aeabi_memcpy
.Ltmp63:
	.loc	3 122 16 is_stmt 1              @ ../User/Library/fifo.c:122:16
	ldr	r0, [r5]
	.loc	3 122 29 is_stmt 0              @ ../User/Library/fifo.c:122:29
	adds	r1, r6, r7
	.loc	3 122 38                        @ ../User/Library/fifo.c:122:38
	subs	r2, r4, r7
	.loc	3 122 3                         @ ../User/Library/fifo.c:122:3
	bl	__aeabi_memcpy
.Ltmp64:
	.loc	3 125 12 is_stmt 1              @ ../User/Library/fifo.c:125:12
	ldr	r0, [r5, #12]
	add	r0, r4
	str	r0, [r5, #12]
	.loc	3 127 1                         @ ../User/Library/fifo.c:127:1
	mov	r0, r4
	add	sp, #4
	pop	{r4, r5, r6, r7, pc}
.Ltmp65:
.Lfunc_end2:
	.size	fifo_write, .Lfunc_end2-fifo_write
	.cfi_endproc
	.cantunwind
	.fnend
                                        @ -- End function
	.section	.text.fifo_read,"ax",%progbits
	.hidden	fifo_read                       @ -- Begin function fifo_read
	.globl	fifo_read
	.p2align	2
	.type	fifo_read,%function
	.code	16                              @ @fifo_read
	.thumb_func
fifo_read:
.Lfunc_begin3:
	.loc	3 137 0                         @ ../User/Library/fifo.c:137:0
	.fnstart
	.cfi_startproc
@ %bb.0:
	@DEBUG_VALUE: fifo_read:fifo <- $r0
	@DEBUG_VALUE: fifo_read:dst_buf <- $r1
	@DEBUG_VALUE: fifo_read:len <- $r2
	@DEBUG_VALUE: fifo_is_empty:fifo <- $r0
	.save	{r4, r5, r6, r7, lr}
	push	{r4, r5, r6, r7, lr}
	.cfi_def_cfa_offset 20
	.cfi_offset lr, -4
	.cfi_offset r7, -8
	.cfi_offset r6, -12
	.cfi_offset r5, -16
	.cfi_offset r4, -20
	.pad	#4
	sub	sp, #4
	.cfi_def_cfa_offset 24
	mov	r5, r0
.Ltmp66:
	@DEBUG_VALUE: fifo_is_empty:fifo <- $r5
	@DEBUG_VALUE: fifo_read:fifo <- $r5
	.loc	2 61 17 prologue_end            @ ../User/Library/fifo.h:61:17
	ldr	r0, [r0, #12]
	.loc	2 61 29 is_stmt 0               @ ../User/Library/fifo.h:61:29
	ldr	r3, [r5, #16]
.Ltmp67:
	@DEBUG_VALUE: fifo_read:len <- $r2
	.loc	3 139 7 is_stmt 1               @ ../User/Library/fifo.c:139:7
	cmp	r0, r3
	@DEBUG_VALUE: fifo_read:dst_buf <- $r1
	bne	.LBB3_2
.Ltmp68:
@ %bb.1:
	@DEBUG_VALUE: fifo_read:fifo <- $r5
	@DEBUG_VALUE: fifo_read:len <- $r2
	@DEBUG_VALUE: fifo_read:dst_buf <- $r1
	.loc	3 0 7 is_stmt 0                 @ ../User/Library/fifo.c:0:7
	movs	r4, #0
	.loc	3 151 1 is_stmt 1               @ ../User/Library/fifo.c:151:1
	mov	r0, r4
	add	sp, #4
	pop	{r4, r5, r6, r7, pc}
.Ltmp69:
	.p2align	2
.LBB3_2:
	@DEBUG_VALUE: fifo_read:fifo <- $r5
	@DEBUG_VALUE: fifo_read:len <- $r2
	@DEBUG_VALUE: fifo_read:dst_buf <- $r1
	.loc	3 0 1 is_stmt 0                 @ ../User/Library/fifo.c:0:1
	mov	r6, r1
.Ltmp70:
	@DEBUG_VALUE: fifo_read:dst_buf <- $r6
	@DEBUG_VALUE: fifo_read:dst_buf <- $r6
	.loc	3 142 9 is_stmt 1               @ ../User/Library/fifo.c:142:9
	ldr	r0, [r5, #12]
	ldr	r1, [r5, #16]
	mov	r4, r2
.Ltmp71:
	@DEBUG_VALUE: fifo_read:len <- $r4
	subs	r0, r0, r1
	cmp	r0, r2
	bhi	.LBB3_4
.Ltmp72:
@ %bb.3:
	@DEBUG_VALUE: fifo_read:len <- $r4
	@DEBUG_VALUE: fifo_read:dst_buf <- $r6
	@DEBUG_VALUE: fifo_read:fifo <- $r5
	ldr	r0, [r5, #12]
	ldr	r1, [r5, #16]
	subs	r4, r0, r1
.Ltmp73:
.LBB3_4:
	@DEBUG_VALUE: fifo_read:dst_buf <- $r6
	@DEBUG_VALUE: fifo_read:fifo <- $r5
	@DEBUG_VALUE: fifo_read:len <- $r4
	.loc	3 143 7                         @ ../User/Library/fifo.c:143:7
	ldrd	r1, r0, [r5, #4]
	ldr	r2, [r5, #16]
	mov	r7, r4
	ands	r2, r0
	subs	r2, r1, r2
	cmp	r4, r2
	blo	.LBB3_6
.Ltmp74:
@ %bb.5:
	@DEBUG_VALUE: fifo_read:len <- $r4
	@DEBUG_VALUE: fifo_read:dst_buf <- $r6
	@DEBUG_VALUE: fifo_read:fifo <- $r5
	ldr	r2, [r5, #16]
	ands	r2, r0
	subs	r7, r1, r2
.Ltmp75:
.LBB3_6:
	@DEBUG_VALUE: fifo_read:len <- $r4
	@DEBUG_VALUE: fifo_read:dst_buf <- $r6
	@DEBUG_VALUE: fifo_read:fifo <- $r5
	@DEBUG_VALUE: fifo_read:l <- $r7
	.loc	3 145 25                        @ ../User/Library/fifo.c:145:25
	ldr	r1, [r5]
	.loc	3 145 38 is_stmt 0              @ ../User/Library/fifo.c:145:38
	ldr	r2, [r5, #16]
	.loc	3 145 42                        @ ../User/Library/fifo.c:145:42
	ands	r0, r2
	.loc	3 145 29                        @ ../User/Library/fifo.c:145:29
	add	r1, r0
	.loc	3 145 3                         @ ../User/Library/fifo.c:145:3
	mov	r0, r6
	mov	r2, r7
	bl	__aeabi_memcpy
.Ltmp76:
	.loc	3 146 29 is_stmt 1              @ ../User/Library/fifo.c:146:29
	ldr	r1, [r5]
	.loc	3 146 18 is_stmt 0              @ ../User/Library/fifo.c:146:18
	adds	r0, r6, r7
	.loc	3 146 38                        @ ../User/Library/fifo.c:146:38
	subs	r2, r4, r7
	.loc	3 146 3                         @ ../User/Library/fifo.c:146:3
	bl	__aeabi_memcpy
.Ltmp77:
	.loc	3 149 13 is_stmt 1              @ ../User/Library/fifo.c:149:13
	ldr	r0, [r5, #16]
	add	r0, r4
	str	r0, [r5, #16]
	.loc	3 151 1                         @ ../User/Library/fifo.c:151:1
	mov	r0, r4
	add	sp, #4
	pop	{r4, r5, r6, r7, pc}
.Ltmp78:
.Lfunc_end3:
	.size	fifo_read, .Lfunc_end3-fifo_read
	.cfi_endproc
	.cantunwind
	.fnend
                                        @ -- End function
	.section	.text.fifo_read_peek,"ax",%progbits
	.hidden	fifo_read_peek                  @ -- Begin function fifo_read_peek
	.globl	fifo_read_peek
	.p2align	2
	.type	fifo_read_peek,%function
	.code	16                              @ @fifo_read_peek
	.thumb_func
fifo_read_peek:
.Lfunc_begin4:
	.loc	3 161 0                         @ ../User/Library/fifo.c:161:0
	.fnstart
	.cfi_startproc
@ %bb.0:
	@DEBUG_VALUE: fifo_read_peek:fifo <- $r0
	@DEBUG_VALUE: fifo_read_peek:dst_buf <- $r1
	@DEBUG_VALUE: fifo_read_peek:len <- $r2
	@DEBUG_VALUE: fifo_is_empty:fifo <- $r0
	.save	{r4, r5, r6, r7, lr}
	push	{r4, r5, r6, r7, lr}
	.cfi_def_cfa_offset 20
	.cfi_offset lr, -4
	.cfi_offset r7, -8
	.cfi_offset r6, -12
	.cfi_offset r5, -16
	.cfi_offset r4, -20
	.pad	#4
	sub	sp, #4
	.cfi_def_cfa_offset 24
	mov	r5, r0
.Ltmp79:
	@DEBUG_VALUE: fifo_is_empty:fifo <- $r5
	@DEBUG_VALUE: fifo_read_peek:fifo <- $r5
	.loc	2 61 17 prologue_end            @ ../User/Library/fifo.h:61:17
	ldr	r0, [r0, #12]
	.loc	2 61 29 is_stmt 0               @ ../User/Library/fifo.h:61:29
	ldr	r3, [r5, #16]
.Ltmp80:
	@DEBUG_VALUE: fifo_read_peek:len <- $r2
	.loc	3 163 7 is_stmt 1               @ ../User/Library/fifo.c:163:7
	cmp	r0, r3
	@DEBUG_VALUE: fifo_read_peek:dst_buf <- $r1
	bne	.LBB4_2
.Ltmp81:
@ %bb.1:
	@DEBUG_VALUE: fifo_read_peek:fifo <- $r5
	@DEBUG_VALUE: fifo_read_peek:len <- $r2
	@DEBUG_VALUE: fifo_read_peek:dst_buf <- $r1
	.loc	3 0 7 is_stmt 0                 @ ../User/Library/fifo.c:0:7
	movs	r4, #0
	.loc	3 173 1 is_stmt 1               @ ../User/Library/fifo.c:173:1
	mov	r0, r4
	add	sp, #4
	pop	{r4, r5, r6, r7, pc}
.Ltmp82:
	.p2align	2
.LBB4_2:
	@DEBUG_VALUE: fifo_read_peek:fifo <- $r5
	@DEBUG_VALUE: fifo_read_peek:len <- $r2
	@DEBUG_VALUE: fifo_read_peek:dst_buf <- $r1
	.loc	3 0 1 is_stmt 0                 @ ../User/Library/fifo.c:0:1
	mov	r6, r1
.Ltmp83:
	@DEBUG_VALUE: fifo_read_peek:dst_buf <- $r6
	@DEBUG_VALUE: fifo_read_peek:dst_buf <- $r6
	.loc	3 166 9 is_stmt 1               @ ../User/Library/fifo.c:166:9
	ldr	r0, [r5, #12]
	ldr	r1, [r5, #16]
	mov	r4, r2
.Ltmp84:
	@DEBUG_VALUE: fifo_read_peek:len <- $r4
	subs	r0, r0, r1
	cmp	r0, r2
	bhi	.LBB4_4
.Ltmp85:
@ %bb.3:
	@DEBUG_VALUE: fifo_read_peek:len <- $r4
	@DEBUG_VALUE: fifo_read_peek:dst_buf <- $r6
	@DEBUG_VALUE: fifo_read_peek:fifo <- $r5
	ldr	r0, [r5, #12]
	ldr	r1, [r5, #16]
	subs	r4, r0, r1
.Ltmp86:
.LBB4_4:
	@DEBUG_VALUE: fifo_read_peek:dst_buf <- $r6
	@DEBUG_VALUE: fifo_read_peek:fifo <- $r5
	@DEBUG_VALUE: fifo_read_peek:len <- $r4
	.loc	3 167 7                         @ ../User/Library/fifo.c:167:7
	ldrd	r1, r0, [r5, #4]
	ldr	r2, [r5, #16]
	mov	r7, r4
	ands	r2, r0
	subs	r2, r1, r2
	cmp	r4, r2
	blo	.LBB4_6
.Ltmp87:
@ %bb.5:
	@DEBUG_VALUE: fifo_read_peek:len <- $r4
	@DEBUG_VALUE: fifo_read_peek:dst_buf <- $r6
	@DEBUG_VALUE: fifo_read_peek:fifo <- $r5
	ldr	r2, [r5, #16]
	ands	r2, r0
	subs	r7, r1, r2
.Ltmp88:
.LBB4_6:
	@DEBUG_VALUE: fifo_read_peek:len <- $r4
	@DEBUG_VALUE: fifo_read_peek:dst_buf <- $r6
	@DEBUG_VALUE: fifo_read_peek:fifo <- $r5
	@DEBUG_VALUE: fifo_read_peek:l <- $r7
	.loc	3 169 25                        @ ../User/Library/fifo.c:169:25
	ldr	r1, [r5]
	.loc	3 169 38 is_stmt 0              @ ../User/Library/fifo.c:169:38
	ldr	r2, [r5, #16]
	.loc	3 169 42                        @ ../User/Library/fifo.c:169:42
	ands	r0, r2
	.loc	3 169 29                        @ ../User/Library/fifo.c:169:29
	add	r1, r0
	.loc	3 169 3                         @ ../User/Library/fifo.c:169:3
	mov	r0, r6
	mov	r2, r7
	bl	__aeabi_memcpy
.Ltmp89:
	.loc	3 170 29 is_stmt 1              @ ../User/Library/fifo.c:170:29
	ldr	r1, [r5]
	.loc	3 170 18 is_stmt 0              @ ../User/Library/fifo.c:170:18
	adds	r0, r6, r7
	.loc	3 170 38                        @ ../User/Library/fifo.c:170:38
	subs	r2, r4, r7
	.loc	3 170 3                         @ ../User/Library/fifo.c:170:3
	bl	__aeabi_memcpy
.Ltmp90:
	.loc	3 173 1 is_stmt 1               @ ../User/Library/fifo.c:173:1
	mov	r0, r4
	add	sp, #4
	pop	{r4, r5, r6, r7, pc}
.Ltmp91:
.Lfunc_end4:
	.size	fifo_read_peek, .Lfunc_end4-fifo_read_peek
	.cfi_endproc
	.cantunwind
	.fnend
                                        @ -- End function
	.section	.text.fifo_write_byte,"ax",%progbits
	.hidden	fifo_write_byte                 @ -- Begin function fifo_write_byte
	.globl	fifo_write_byte
	.p2align	2
	.type	fifo_write_byte,%function
	.code	16                              @ @fifo_write_byte
	.thumb_func
fifo_write_byte:
.Lfunc_begin5:
	.loc	3 182 0                         @ ../User/Library/fifo.c:182:0
	.fnstart
	.cfi_startproc
@ %bb.0:
	@DEBUG_VALUE: fifo_write_byte:fifo <- $r0
	@DEBUG_VALUE: fifo_write_byte:c <- undef
	@DEBUG_VALUE: fifo_is_full:fifo <- $r0
	.loc	2 73 17 prologue_end            @ ../User/Library/fifo.h:73:17
	ldr.w	r12, [r0, #4]
	.loc	2 73 32 is_stmt 0               @ ../User/Library/fifo.h:73:32
	ldr	r3, [r0, #12]
	.loc	2 73 43                         @ ../User/Library/fifo.h:73:43
	ldr	r2, [r0, #16]
	.loc	2 73 35                         @ ../User/Library/fifo.h:73:35
	subs	r2, r3, r2
.Ltmp92:
	.loc	3 184 7 is_stmt 1               @ ../User/Library/fifo.c:184:7
	cmp	r12, r2
.Ltmp93:
	@DEBUG_VALUE: fifo_write_byte:c <- $r1
	.loc	3 0 7 is_stmt 0                 @ ../User/Library/fifo.c:0:7
	itt	eq
	moveq	r0, #0
.Ltmp94:
	@DEBUG_VALUE: fifo_write_byte:fifo <- [DW_OP_LLVM_entry_value 1] $r0
	.loc	3 191 1 is_stmt 1               @ ../User/Library/fifo.c:191:1
	bxeq	lr
.Ltmp95:
.LBB5_1:
	@DEBUG_VALUE: fifo_write_byte:fifo <- [DW_OP_LLVM_entry_value 1] $r0
	@DEBUG_VALUE: fifo_write_byte:c <- $r1
	@DEBUG_VALUE: fifo_write_byte:c <- $r1
	.loc	3 186 9                         @ ../User/Library/fifo.c:186:9
	ldr.w	r12, [r0]
	.loc	3 186 30 is_stmt 0              @ ../User/Library/fifo.c:186:30
	ldr	r3, [r0, #8]
	.loc	3 186 19                        @ ../User/Library/fifo.c:186:19
	ldr	r2, [r0, #12]
	.loc	3 186 22                        @ ../User/Library/fifo.c:186:22
	ands	r2, r3
	.loc	3 186 36                        @ ../User/Library/fifo.c:186:36
	strb.w	r1, [r12, r2]
	.loc	3 189 11 is_stmt 1              @ ../User/Library/fifo.c:189:11
	ldr	r1, [r0, #12]
.Ltmp96:
	adds	r1, #1
	str	r1, [r0, #12]
	movs	r0, #1
	.loc	3 191 1                         @ ../User/Library/fifo.c:191:1
	bx	lr
.Ltmp97:
.Lfunc_end5:
	.size	fifo_write_byte, .Lfunc_end5-fifo_write_byte
	.cfi_endproc
	.cantunwind
	.fnend
                                        @ -- End function
	.section	.text.fifo_read_byte,"ax",%progbits
	.hidden	fifo_read_byte                  @ -- Begin function fifo_read_byte
	.globl	fifo_read_byte
	.p2align	2
	.type	fifo_read_byte,%function
	.code	16                              @ @fifo_read_byte
	.thumb_func
fifo_read_byte:
.Lfunc_begin6:
	.loc	3 200 0                         @ ../User/Library/fifo.c:200:0
	.fnstart
	.cfi_startproc
@ %bb.0:
	@DEBUG_VALUE: fifo_read_byte:fifo <- $r0
	@DEBUG_VALUE: fifo_read_byte:c <- $r1
	@DEBUG_VALUE: fifo_is_empty:fifo <- $r0
	.loc	2 61 17 prologue_end            @ ../User/Library/fifo.h:61:17
	ldr	r2, [r0, #12]
	.loc	2 61 29 is_stmt 0               @ ../User/Library/fifo.h:61:29
	ldr	r3, [r0, #16]
.Ltmp98:
	.loc	3 202 7 is_stmt 1               @ ../User/Library/fifo.c:202:7
	cmp	r2, r3
	itt	eq
	moveq	r0, #0
.Ltmp99:
	@DEBUG_VALUE: fifo_read_byte:fifo <- [DW_OP_LLVM_entry_value 1] $r0
	.loc	3 209 1                         @ ../User/Library/fifo.c:209:1
	bxeq	lr
.Ltmp100:
.LBB6_1:
	@DEBUG_VALUE: fifo_read_byte:fifo <- [DW_OP_LLVM_entry_value 1] $r0
	@DEBUG_VALUE: fifo_read_byte:c <- $r1
	.loc	3 204 14                        @ ../User/Library/fifo.c:204:14
	ldr.w	r12, [r0]
	.loc	3 204 36 is_stmt 0              @ ../User/Library/fifo.c:204:36
	ldr	r3, [r0, #8]
	.loc	3 204 24                        @ ../User/Library/fifo.c:204:24
	ldr	r2, [r0, #16]
	.loc	3 204 28                        @ ../User/Library/fifo.c:204:28
	ands	r2, r3
	.loc	3 204 8                         @ ../User/Library/fifo.c:204:8
	ldrb.w	r2, [r12, r2]
	.loc	3 204 6                         @ ../User/Library/fifo.c:204:6
	strb	r2, [r1]
	.loc	3 207 12 is_stmt 1              @ ../User/Library/fifo.c:207:12
	ldr	r1, [r0, #16]
.Ltmp101:
	@DEBUG_VALUE: fifo_read_byte:c <- [DW_OP_LLVM_entry_value 1] $r1
	adds	r1, #1
	str	r1, [r0, #16]
	movs	r0, #1
	.loc	3 209 1                         @ ../User/Library/fifo.c:209:1
	bx	lr
.Ltmp102:
.Lfunc_end6:
	.size	fifo_read_byte, .Lfunc_end6-fifo_read_byte
	.cfi_endproc
	.cantunwind
	.fnend
                                        @ -- End function
	.section	.text.fifo_read_byte_peek,"ax",%progbits
	.hidden	fifo_read_byte_peek             @ -- Begin function fifo_read_byte_peek
	.globl	fifo_read_byte_peek
	.p2align	2
	.type	fifo_read_byte_peek,%function
	.code	16                              @ @fifo_read_byte_peek
	.thumb_func
fifo_read_byte_peek:
.Lfunc_begin7:
	.loc	3 218 0                         @ ../User/Library/fifo.c:218:0
	.fnstart
	.cfi_startproc
@ %bb.0:
	@DEBUG_VALUE: fifo_read_byte_peek:fifo <- $r0
	@DEBUG_VALUE: fifo_read_byte_peek:c <- $r1
	@DEBUG_VALUE: fifo_is_empty:fifo <- $r0
	.loc	2 61 17 prologue_end            @ ../User/Library/fifo.h:61:17
	ldr	r2, [r0, #12]
	.loc	2 61 29 is_stmt 0               @ ../User/Library/fifo.h:61:29
	ldr	r3, [r0, #16]
.Ltmp103:
	.loc	3 220 7 is_stmt 1               @ ../User/Library/fifo.c:220:7
	cmp	r2, r3
	itt	eq
	moveq	r0, #0
.Ltmp104:
	@DEBUG_VALUE: fifo_read_byte_peek:fifo <- [DW_OP_LLVM_entry_value 1] $r0
	.loc	3 225 1                         @ ../User/Library/fifo.c:225:1
	bxeq	lr
.Ltmp105:
.LBB7_1:
	@DEBUG_VALUE: fifo_read_byte_peek:fifo <- [DW_OP_LLVM_entry_value 1] $r0
	@DEBUG_VALUE: fifo_read_byte_peek:c <- $r1
	.loc	3 222 14                        @ ../User/Library/fifo.c:222:14
	ldr	r2, [r0]
	.loc	3 222 36 is_stmt 0              @ ../User/Library/fifo.c:222:36
	ldr	r3, [r0, #8]
	.loc	3 222 24                        @ ../User/Library/fifo.c:222:24
	ldr	r0, [r0, #16]
	.loc	3 222 28                        @ ../User/Library/fifo.c:222:28
	ands	r0, r3
	.loc	3 222 8                         @ ../User/Library/fifo.c:222:8
	ldrb	r0, [r2, r0]
	.loc	3 222 6                         @ ../User/Library/fifo.c:222:6
	strb	r0, [r1]
	movs	r0, #1
	.loc	3 225 1 is_stmt 1               @ ../User/Library/fifo.c:225:1
	bx	lr
.Ltmp106:
.Lfunc_end7:
	.size	fifo_read_byte_peek, .Lfunc_end7-fifo_read_byte_peek
	.cfi_endproc
	.cantunwind
	.fnend
                                        @ -- End function
	.section	".note.GNU-stack","",%progbits
	.eabi_attribute	30, 2	@ Tag_ABI_optimization_goals
	.ARM_attribute	16, 1	@ Tag_AV_eba